
bin/hypervisor:     file format elf64-x86-64


Disassembly of section .init:

0000000000200000 <_ZN4Acpi5setupEv>:
{
    write (RESET, reset_val);
}

void Acpi::setup()
{
  200000:	53                   	push   %rbx
  200001:	48 83 ec 10          	sub    $0x10,%rsp
    Acpi_rsdp::parse();
  200005:	e8 cc 09 00 00       	callq  2009d6 <_ZN9Acpi_rsdp5parseEv>

    if (xsdt)
  20000a:	48 8b 1d d7 1c e2 80 	mov    -0x7f1de329(%rip),%rbx        # ffffffff81021ce8 <_ZN4Acpi4xsdtE>
  200011:	48 85 db             	test   %rbx,%rbx
  200014:	74 16                	je     20002c <_ZN4Acpi5setupEv+0x2c>
        static_cast<Acpi_table_rsdt *>(Hpt::remap (Pd::kern.quota, xsdt))->parse (xsdt, sizeof (uint64));
  200016:	48 89 de             	mov    %rbx,%rsi
  200019:	48 c7 c7 a8 3f 16 81 	mov    $0xffffffff81163fa8,%rdi
  200020:	e8 ed 80 e0 80       	callq  ffffffff81008112 <_ZN3Hpt5remapER5Quotam>
  200025:	ba 08 00 00 00       	mov    $0x8,%edx
  20002a:	eb 20                	jmp    20004c <_ZN4Acpi5setupEv+0x4c>
    else if (rsdt)
  20002c:	48 8b 1d bd 1c e2 80 	mov    -0x7f1de343(%rip),%rbx        # ffffffff81021cf0 <_ZN4Acpi4rsdtE>
  200033:	48 85 db             	test   %rbx,%rbx
  200036:	74 1f                	je     200057 <_ZN4Acpi5setupEv+0x57>
        static_cast<Acpi_table_rsdt *>(Hpt::remap (Pd::kern.quota, rsdt))->parse (rsdt, sizeof (uint32));
  200038:	48 89 de             	mov    %rbx,%rsi
  20003b:	48 c7 c7 a8 3f 16 81 	mov    $0xffffffff81163fa8,%rdi
  200042:	e8 cb 80 e0 80       	callq  ffffffff81008112 <_ZN3Hpt5remapER5Quotam>
  200047:	ba 04 00 00 00       	mov    $0x4,%edx
  20004c:	48 89 de             	mov    %rbx,%rsi
  20004f:	48 89 c7             	mov    %rax,%rdi
  200052:	e8 ff 09 00 00       	callq  200a56 <_ZNK15Acpi_table_rsdt5parseEmm>

    if (fadt)
  200057:	48 8b 35 b2 1c e2 80 	mov    -0x7f1de34e(%rip),%rsi        # ffffffff81021d10 <_ZN4Acpi4fadtE>
  20005e:	48 85 f6             	test   %rsi,%rsi
  200061:	74 14                	je     200077 <_ZN4Acpi5setupEv+0x77>
        static_cast<Acpi_table_fadt *>(Hpt::remap (Pd::kern.quota, fadt))->parse();
  200063:	48 c7 c7 a8 3f 16 81 	mov    $0xffffffff81163fa8,%rdi
  20006a:	e8 a3 80 e0 80       	callq  ffffffff81008112 <_ZN3Hpt5remapER5Quotam>
  20006f:	48 89 c7             	mov    %rax,%rdi
  200072:	e8 25 04 00 00       	callq  20049c <_ZNK15Acpi_table_fadt5parseEv>
    if (hpet)
  200077:	48 8b 35 8a 1c e2 80 	mov    -0x7f1de376(%rip),%rsi        # ffffffff81021d08 <_ZN4Acpi4hpetE>
  20007e:	48 85 f6             	test   %rsi,%rsi
  200081:	74 14                	je     200097 <_ZN4Acpi5setupEv+0x97>
        static_cast<Acpi_table_hpet *>(Hpt::remap (Pd::kern.quota, hpet))->parse();
  200083:	48 c7 c7 a8 3f 16 81 	mov    $0xffffffff81163fa8,%rdi
  20008a:	e8 83 80 e0 80       	callq  ffffffff81008112 <_ZN3Hpt5remapER5Quotam>
  20008f:	48 89 c7             	mov    %rax,%rdi
  200092:	e8 f1 05 00 00       	callq  200688 <_ZNK15Acpi_table_hpet5parseEv>
    if (madt)
  200097:	48 8b 35 62 1c e2 80 	mov    -0x7f1de39e(%rip),%rsi        # ffffffff81021d00 <_ZN4Acpi4madtE>
  20009e:	48 85 f6             	test   %rsi,%rsi
  2000a1:	74 14                	je     2000b7 <_ZN4Acpi5setupEv+0xb7>
        static_cast<Acpi_table_madt *>(Hpt::remap (Pd::kern.quota, madt))->parse();
  2000a3:	48 c7 c7 a8 3f 16 81 	mov    $0xffffffff81163fa8,%rdi
  2000aa:	e8 63 80 e0 80       	callq  ffffffff81008112 <_ZN3Hpt5remapER5Quotam>
  2000af:	48 89 c7             	mov    %rax,%rdi
  2000b2:	e8 3b 08 00 00       	callq  2008f2 <_ZNK15Acpi_table_madt5parseEv>
    if (mcfg)
  2000b7:	48 8b 35 3a 1c e2 80 	mov    -0x7f1de3c6(%rip),%rsi        # ffffffff81021cf8 <_ZN4Acpi4mcfgE>
  2000be:	48 85 f6             	test   %rsi,%rsi
  2000c1:	74 14                	je     2000d7 <_ZN4Acpi5setupEv+0xd7>
        static_cast<Acpi_table_mcfg *>(Hpt::remap (Pd::kern.quota, mcfg))->parse();
  2000c3:	48 c7 c7 a8 3f 16 81 	mov    $0xffffffff81163fa8,%rdi
  2000ca:	e8 43 80 e0 80       	callq  ffffffff81008112 <_ZN3Hpt5remapER5Quotam>
  2000cf:	48 89 c7             	mov    %rax,%rdi
  2000d2:	e8 71 08 00 00       	callq  200948 <_ZNK15Acpi_table_mcfg5parseEv>
    if (dmar)
  2000d7:	48 8b 35 3a 1c e2 80 	mov    -0x7f1de3c6(%rip),%rsi        # ffffffff81021d18 <_ZN4Acpi4dmarE>
  2000de:	48 85 f6             	test   %rsi,%rsi
  2000e1:	74 14                	je     2000f7 <_ZN4Acpi5setupEv+0xf7>
        static_cast<Acpi_table_dmar *>(Hpt::remap (Pd::kern.quota, dmar))->parse();
  2000e3:	48 c7 c7 a8 3f 16 81 	mov    $0xffffffff81163fa8,%rdi
  2000ea:	e8 23 80 e0 80       	callq  ffffffff81008112 <_ZN3Hpt5remapER5Quotam>
  2000ef:	48 89 c7             	mov    %rax,%rdi
  2000f2:	e8 0f 03 00 00       	callq  200406 <_ZNK15Acpi_table_dmar5parseEv>

    if (!Acpi_table_madt::sci_overridden) {
  2000f7:	80 3d 02 1b e2 80 00 	cmpb   $0x0,-0x7f1de4fe(%rip)        # ffffffff81021c00 <_ZN15Acpi_table_madt14sci_overriddenE>
  2000fe:	75 22                	jne    200122 <_ZN4Acpi5setupEv+0x122>
        Acpi_intr sci_override;
        sci_override.bus = 0;
        sci_override.irq = static_cast<uint8>(irq);
  200100:	8b 05 02 1b e2 80    	mov    -0x7f1de4fe(%rip),%eax        # ffffffff81021c08 <_ZN4Acpi3irqE>
        sci_override.gsi = irq;
        sci_override.flags.pol = Acpi_inti::POL_CONFORMING;
        sci_override.flags.trg = Acpi_inti::TRG_CONFORMING;
        Acpi_table_madt::parse_intr (&sci_override);
  200106:	48 8d 7c 24 06       	lea    0x6(%rsp),%rdi
    if (dmar)
        static_cast<Acpi_table_dmar *>(Hpt::remap (Pd::kern.quota, dmar))->parse();

    if (!Acpi_table_madt::sci_overridden) {
        Acpi_intr sci_override;
        sci_override.bus = 0;
  20010b:	c6 44 24 08 00       	movb   $0x0,0x8(%rsp)
        sci_override.irq = static_cast<uint8>(irq);
        sci_override.gsi = irq;
        sci_override.flags.pol = Acpi_inti::POL_CONFORMING;
        sci_override.flags.trg = Acpi_inti::TRG_CONFORMING;
  200110:	80 64 24 0e f0       	andb   $0xf0,0xe(%rsp)
        static_cast<Acpi_table_dmar *>(Hpt::remap (Pd::kern.quota, dmar))->parse();

    if (!Acpi_table_madt::sci_overridden) {
        Acpi_intr sci_override;
        sci_override.bus = 0;
        sci_override.irq = static_cast<uint8>(irq);
  200115:	88 44 24 09          	mov    %al,0x9(%rsp)
        sci_override.gsi = irq;
  200119:	89 44 24 0a          	mov    %eax,0xa(%rsp)
        sci_override.flags.pol = Acpi_inti::POL_CONFORMING;
        sci_override.flags.trg = Acpi_inti::TRG_CONFORMING;
        Acpi_table_madt::parse_intr (&sci_override);
  20011d:	e8 c0 05 00 00       	callq  2006e2 <_ZN15Acpi_table_madt10parse_intrEPK9Acpi_apic>
    }

    Gsi::set (gsi = Gsi::irq_to_gsi (irq));
  200122:	8b 05 e0 1a e2 80    	mov    -0x7f1de520(%rip),%eax        # ffffffff81021c08 <_ZN4Acpi3irqE>
        static void unmask (unsigned);

        ALWAYS_INLINE
        static inline unsigned irq_to_gsi (unsigned irq)
        {
            assert (irq < NUM_IRQ);
  200128:	83 f8 0f             	cmp    $0xf,%eax
  20012b:	76 28                	jbe    200155 <_ZN4Acpi5setupEv+0x155>
  20012d:	49 c7 c0 f0 d2 01 81 	mov    $0xffffffff8101d2f0,%r8
  200134:	b9 38 00 00 00       	mov    $0x38,%ecx
  200139:	48 c7 c2 ab d1 01 81 	mov    $0xffffffff8101d1ab,%rdx
  200140:	48 c7 c6 1a d2 01 81 	mov    $0xffffffff8101d21a,%rsi
  200147:	48 c7 c7 28 d2 01 81 	mov    $0xffffffff8101d228,%rdi
  20014e:	31 c0                	xor    %eax,%eax
  200150:	e8 fb 1d e0 80       	callq  ffffffff81001f50 <_ZN7Console5panicEPKcz>
            return irq_table[irq];
  200155:	8b 3c 85 00 21 16 81 	mov    -0x7ee9df00(,%rax,4),%edi
  20015c:	31 d2                	xor    %edx,%edx
  20015e:	31 f6                	xor    %esi,%esi
  200160:	89 3d 9e 1a e2 80    	mov    %edi,-0x7f1de562(%rip)        # ffffffff81021c04 <_ZN4Acpi3gsiE>
  200166:	e8 23 79 e0 80       	callq  ffffffff81007a8e <_ZN3Gsi3setEjjj>

    write (PM1_ENA, PM1_ENA_TMR);
  20016b:	be 01 00 00 00       	mov    $0x1,%esi
  200170:	bf 01 00 00 00       	mov    $0x1,%edi
  200175:	e8 36 0c e0 80       	callq  ffffffff81000db0 <_ZN4Acpi5writeENS_8RegisterEj>

    clear (GPE0_ENA, 0);
  20017a:	31 f6                	xor    %esi,%esi
  20017c:	bf 05 00 00 00       	mov    $0x5,%edi
  200181:	e8 f2 0b e0 80       	callq  ffffffff81000d78 <_ZN4Acpi5clearENS_8RegisterEj>
    clear (GPE1_ENA, 0);
  200186:	31 f6                	xor    %esi,%esi
  200188:	bf 07 00 00 00       	mov    $0x7,%edi
  20018d:	e8 e6 0b e0 80       	callq  ffffffff81000d78 <_ZN4Acpi5clearENS_8RegisterEj>

    for (; tmr_ovf = read (PM_TMR) >> tmr_msb(), read (PM1_STS) & PM1_STS_TMR; write (PM1_STS, PM1_STS_TMR)) ;
  200192:	bf 08 00 00 00       	mov    $0x8,%edi
  200197:	e8 90 0a e0 80       	callq  ffffffff81000c2c <_ZN4Acpi4readENS_8RegisterE>
        static void hw_write (Acpi_gas *, unsigned, bool = false);
        static void write (Register, unsigned);
        static void clear (Register, unsigned);

        ALWAYS_INLINE
        static inline mword tmr_msb() { return feature & 0x100 ? 31 : 23; }
  20019c:	8b 15 6e 1a e2 80    	mov    -0x7f1de592(%rip),%edx        # ffffffff81021c10 <_ZN4Acpi7featureE>
  2001a2:	81 e2 00 01 00 00    	and    $0x100,%edx
  2001a8:	83 fa 01             	cmp    $0x1,%edx
  2001ab:	48 19 c9             	sbb    %rcx,%rcx
  2001ae:	31 ff                	xor    %edi,%edi
  2001b0:	48 83 e1 f8          	and    $0xfffffffffffffff8,%rcx
  2001b4:	48 83 c1 1f          	add    $0x1f,%rcx
  2001b8:	d3 e8                	shr    %cl,%eax
  2001ba:	89 05 54 1a e2 80    	mov    %eax,-0x7f1de5ac(%rip)        # ffffffff81021c14 <_ZN4Acpi7tmr_ovfE>
  2001c0:	e8 67 0a e0 80       	callq  ffffffff81000c2c <_ZN4Acpi4readENS_8RegisterE>
  2001c5:	a8 01                	test   $0x1,%al
  2001c7:	74 0e                	je     2001d7 <_ZN4Acpi5setupEv+0x1d7>
  2001c9:	be 01 00 00 00       	mov    $0x1,%esi
  2001ce:	31 ff                	xor    %edi,%edi
  2001d0:	e8 db 0b e0 80       	callq  ffffffff81000db0 <_ZN4Acpi5writeENS_8RegisterEj>
  2001d5:	eb bb                	jmp    200192 <_ZN4Acpi5setupEv+0x192>

    trace (TRACE_ACPI, "ACPI: GSI:%#x TMR:%lu", gsi, tmr_msb() + 1);
}
  2001d7:	48 83 c4 10          	add    $0x10,%rsp
  2001db:	5b                   	pop    %rbx
  2001dc:	c3                   	retq   
  2001dd:	90                   	nop

00000000002001de <_ZNK9Acpi_dmar5parseEv>:
#include "ioapic.hpp"
#include "pci.hpp"
#include "pd.hpp"

void Acpi_dmar::parse() const
{
  2001de:	55                   	push   %rbp
  2001df:	53                   	push   %rbx
    public:
        INIT
        Dmar (Paddr);

        ALWAYS_INLINE
        static inline void *operator new (size_t, Quota &quota) { return cache.alloc(quota); }
  2001e0:	48 c7 c6 a8 3f 16 81 	mov    $0xffffffff81163fa8,%rsi
  2001e7:	52                   	push   %rdx
  2001e8:	48 89 fb             	mov    %rdi,%rbx
  2001eb:	48 c7 c7 70 20 16 81 	mov    $0xffffffff81162070,%rdi
  2001f2:	e8 37 57 e1 80       	callq  ffffffff8101592e <_ZN10Slab_cache5allocER5Quota>
    Dmar *dmar = new (Pd::kern.quota) Dmar (static_cast<Paddr>(phys));
  2001f7:	48 8b 73 08          	mov    0x8(%rbx),%rsi
  2001fb:	48 89 c7             	mov    %rax,%rdi
  2001fe:	48 89 c5             	mov    %rax,%rbp
  200201:	e8 a6 0c 00 00       	callq  200eac <_ZN4DmarC1Em>

    if (flags & 1)
  200206:	f6 43 04 01          	testb  $0x1,0x4(%rbx)
  20020a:	48 8b 05 df 36 f6 80 	mov    -0x7f09c921(%rip),%rax        # ffffffff811638f0 <_ZN3Pci4listE>
  200211:	75 14                	jne    200227 <_ZNK9Acpi_dmar5parseEv+0x49>
        Pci::claim_all (dmar);

    for (Acpi_scope const *s = scope; s < reinterpret_cast<Acpi_scope *>(reinterpret_cast<mword>(this) + length); s = reinterpret_cast<Acpi_scope *>(reinterpret_cast<mword>(s) + s->length)) {
  200213:	48 8d 53 10          	lea    0x10(%rbx),%rdx
        static inline void *operator new (size_t, Quota &quota) { return cache.alloc(quota); }

        ALWAYS_INLINE
        static inline bool claim_dev (unsigned r, unsigned i)
        {
            for (Ioapic *ioapic = list; ioapic; ioapic = ioapic->next)
  200217:	48 8b 35 12 36 f6 80 	mov    -0x7f09c9ee(%rip),%rsi        # ffffffff81163830 <_ZN6Ioapic4listE>
        static inline void *operator new (size_t, Quota &quota) { return cache.alloc(quota); }

        ALWAYS_INLINE
        static inline bool claim_dev (unsigned r, unsigned i)
        {
            for (Hpet *hpet = list; hpet; hpet = hpet->next)
  20021e:	48 8b 3d 2b 2b f6 80 	mov    -0x7f09d4d5(%rip),%rdi        # ffffffff81162d50 <_ZN4Hpet4listE>
  200225:	eb 56                	jmp    20027d <_ZNK9Acpi_dmar5parseEv+0x9f>
        static inline void *operator new (size_t, Quota &quota) { return cache.alloc(quota); }

        ALWAYS_INLINE
        static inline void claim_all (Dmar *d)
        {
            for (Pci *pci = list; pci; pci = pci->next)
  200227:	48 89 c2             	mov    %rax,%rdx
  20022a:	48 85 d2             	test   %rdx,%rdx
  20022d:	74 e4                	je     200213 <_ZNK9Acpi_dmar5parseEv+0x35>
                if (!pci->dmar)
  20022f:	48 83 7a 18 00       	cmpq   $0x0,0x18(%rdx)
  200234:	75 04                	jne    20023a <_ZNK9Acpi_dmar5parseEv+0x5c>
                    pci->dmar = d;
  200236:	48 89 6a 18          	mov    %rbp,0x18(%rdx)
        static inline void *operator new (size_t, Quota &quota) { return cache.alloc(quota); }

        ALWAYS_INLINE
        static inline void claim_all (Dmar *d)
        {
            for (Pci *pci = list; pci; pci = pci->next)
  20023a:	48 8b 12             	mov    (%rdx),%rdx
  20023d:	eb eb                	jmp    20022a <_ZNK9Acpi_dmar5parseEv+0x4c>

        switch (s->type) {
  20023f:	8a 0a                	mov    (%rdx),%cl
  200241:	80 f9 03             	cmp    $0x3,%cl
  200244:	0f 84 8c 00 00 00    	je     2002d6 <_ZNK9Acpi_dmar5parseEv+0xf8>
  20024a:	77 42                	ja     20028e <_ZNK9Acpi_dmar5parseEv+0xb0>
  20024c:	80 f9 01             	cmp    $0x1,%cl
  20024f:	72 25                	jb     200276 <_ZNK9Acpi_dmar5parseEv+0x98>
        uint8       length;
        uint16      reserved;
        uint8       id, b, d, f;

        ALWAYS_INLINE
        inline unsigned rid() const { return b << 8 | d << 3 | f; }
  200251:	44 0f b6 42 05       	movzbl 0x5(%rdx),%r8d
  200256:	0f b6 4a 06          	movzbl 0x6(%rdx),%ecx
  20025a:	41 c1 e0 08          	shl    $0x8,%r8d
  20025e:	c1 e1 03             	shl    $0x3,%ecx
  200261:	41 09 c8             	or     %ecx,%r8d
  200264:	0f b6 4a 07          	movzbl 0x7(%rdx),%ecx
  200268:	41 09 c8             	or     %ecx,%r8d
        inline void write (Register r, T v) { *reinterpret_cast<T volatile *>(reg_base + r) = v; }

        ALWAYS_INLINE
        static inline Pci *find_dev (unsigned long r)
        {
            for (Pci *pci = list; pci; pci = pci->next)
  20026b:	48 89 c1             	mov    %rax,%rcx
        }

        ALWAYS_INLINE
        static inline bool claim_dev (Dmar *d, unsigned r)
        {
            Pci *pci = find_dev (r);
  20026e:	4d 63 c0             	movslq %r8d,%r8
        inline void write (Register r, T v) { *reinterpret_cast<T volatile *>(reg_base + r) = v; }

        ALWAYS_INLINE
        static inline Pci *find_dev (unsigned long r)
        {
            for (Pci *pci = list; pci; pci = pci->next)
  200271:	48 85 c9             	test   %rcx,%rcx
  200274:	75 35                	jne    2002ab <_ZNK9Acpi_dmar5parseEv+0xcd>
    Dmar *dmar = new (Pd::kern.quota) Dmar (static_cast<Paddr>(phys));

    if (flags & 1)
        Pci::claim_all (dmar);

    for (Acpi_scope const *s = scope; s < reinterpret_cast<Acpi_scope *>(reinterpret_cast<mword>(this) + length); s = reinterpret_cast<Acpi_scope *>(reinterpret_cast<mword>(s) + s->length)) {
  200276:	0f b6 4a 01          	movzbl 0x1(%rdx),%ecx
  20027a:	48 01 ca             	add    %rcx,%rdx
  20027d:	0f b7 4b 02          	movzwl 0x2(%rbx),%ecx
  200281:	48 01 d9             	add    %rbx,%rcx
  200284:	48 39 ca             	cmp    %rcx,%rdx
  200287:	72 b6                	jb     20023f <_ZNK9Acpi_dmar5parseEv+0x61>
  200289:	e9 bf 00 00 00       	jmpq   20034d <_ZNK9Acpi_dmar5parseEv+0x16f>

        switch (s->type) {
  20028e:	80 f9 04             	cmp    $0x4,%cl
  200291:	75 e3                	jne    200276 <_ZNK9Acpi_dmar5parseEv+0x98>
                break;
            case 3:
                Ioapic::claim_dev (s->rid(), s->id);
                break;
            case 4:
                Hpet::claim_dev (s->rid(), s->id);
  200293:	44 0f b6 5a 04       	movzbl 0x4(%rdx),%r11d
  200298:	0f b6 4a 05          	movzbl 0x5(%rdx),%ecx
  20029c:	49 89 f8             	mov    %rdi,%r8
  20029f:	44 0f b6 52 06       	movzbl 0x6(%rdx),%r10d
  2002a4:	44 0f b6 4a 07       	movzbl 0x7(%rdx),%r9d
  2002a9:	eb 7b                	jmp    200326 <_ZNK9Acpi_dmar5parseEv+0x148>
                if (pci->rid == r)
  2002ab:	44 0f b7 49 10       	movzwl 0x10(%rcx),%r9d
  2002b0:	4d 39 c1             	cmp    %r8,%r9
  2002b3:	75 07                	jne    2002bc <_ZNK9Acpi_dmar5parseEv+0xde>
            Pci *pci = find_dev (r);

            if (!pci)
                return false;

            unsigned l = pci->lev;
  2002b5:	66 44 8b 41 12       	mov    0x12(%rcx),%r8w
  2002ba:	eb 0c                	jmp    2002c8 <_ZNK9Acpi_dmar5parseEv+0xea>
        inline void write (Register r, T v) { *reinterpret_cast<T volatile *>(reg_base + r) = v; }

        ALWAYS_INLINE
        static inline Pci *find_dev (unsigned long r)
        {
            for (Pci *pci = list; pci; pci = pci->next)
  2002bc:	48 8b 09             	mov    (%rcx),%rcx
  2002bf:	eb b0                	jmp    200271 <_ZNK9Acpi_dmar5parseEv+0x93>

            if (!pci)
                return false;

            unsigned l = pci->lev;
            do pci->dmar = d; while ((pci = pci->next) && pci->lev > l);
  2002c1:	66 44 39 41 12       	cmp    %r8w,0x12(%rcx)
  2002c6:	76 ae                	jbe    200276 <_ZNK9Acpi_dmar5parseEv+0x98>
  2002c8:	48 89 69 18          	mov    %rbp,0x18(%rcx)
  2002cc:	48 8b 09             	mov    (%rcx),%rcx
  2002cf:	48 85 c9             	test   %rcx,%rcx
  2002d2:	75 ed                	jne    2002c1 <_ZNK9Acpi_dmar5parseEv+0xe3>
  2002d4:	eb a0                	jmp    200276 <_ZNK9Acpi_dmar5parseEv+0x98>
        switch (s->type) {
            case 1 ... 2:
                Pci::claim_dev (dmar, s->rid());
                break;
            case 3:
                Ioapic::claim_dev (s->rid(), s->id);
  2002d6:	44 0f b6 5a 04       	movzbl 0x4(%rdx),%r11d
  2002db:	0f b6 4a 05          	movzbl 0x5(%rdx),%ecx
  2002df:	49 89 f0             	mov    %rsi,%r8
  2002e2:	44 0f b6 52 06       	movzbl 0x6(%rdx),%r10d
  2002e7:	44 0f b6 4a 07       	movzbl 0x7(%rdx),%r9d
  2002ec:	4d 85 c0             	test   %r8,%r8
  2002ef:	74 85                	je     200276 <_ZNK9Acpi_dmar5parseEv+0x98>
                if (ioapic->rid == 0 && ioapic->id == i) {
  2002f1:	66 41 83 78 18 00    	cmpw   $0x0,0x18(%r8)
  2002f7:	75 1d                	jne    200316 <_ZNK9Acpi_dmar5parseEv+0x138>
  2002f9:	45 39 58 14          	cmp    %r11d,0x14(%r8)
  2002fd:	75 17                	jne    200316 <_ZNK9Acpi_dmar5parseEv+0x138>
  2002ff:	41 c1 e2 03          	shl    $0x3,%r10d
  200303:	c1 e1 08             	shl    $0x8,%ecx
  200306:	44 09 d1             	or     %r10d,%ecx
  200309:	44 09 c9             	or     %r9d,%ecx
                    ioapic->rid  = static_cast<uint16>(r);
  20030c:	66 41 89 48 18       	mov    %cx,0x18(%r8)
  200311:	e9 60 ff ff ff       	jmpq   200276 <_ZNK9Acpi_dmar5parseEv+0x98>
        static inline void *operator new (size_t, Quota &quota) { return cache.alloc(quota); }

        ALWAYS_INLINE
        static inline bool claim_dev (unsigned r, unsigned i)
        {
            for (Ioapic *ioapic = list; ioapic; ioapic = ioapic->next)
  200316:	4d 8b 00             	mov    (%r8),%r8
  200319:	eb d1                	jmp    2002ec <_ZNK9Acpi_dmar5parseEv+0x10e>
                if (hpet->rid == 0 && hpet->id == i) {
  20031b:	66 41 83 78 14 00    	cmpw   $0x0,0x14(%r8)
  200321:	74 0d                	je     200330 <_ZNK9Acpi_dmar5parseEv+0x152>
        static inline void *operator new (size_t, Quota &quota) { return cache.alloc(quota); }

        ALWAYS_INLINE
        static inline bool claim_dev (unsigned r, unsigned i)
        {
            for (Hpet *hpet = list; hpet; hpet = hpet->next)
  200323:	4d 8b 00             	mov    (%r8),%r8
  200326:	4d 85 c0             	test   %r8,%r8
  200329:	75 f0                	jne    20031b <_ZNK9Acpi_dmar5parseEv+0x13d>
  20032b:	e9 46 ff ff ff       	jmpq   200276 <_ZNK9Acpi_dmar5parseEv+0x98>
                if (hpet->rid == 0 && hpet->id == i) {
  200330:	45 39 58 10          	cmp    %r11d,0x10(%r8)
  200334:	75 ed                	jne    200323 <_ZNK9Acpi_dmar5parseEv+0x145>
  200336:	41 c1 e2 03          	shl    $0x3,%r10d
  20033a:	c1 e1 08             	shl    $0x8,%ecx
  20033d:	44 09 d1             	or     %r10d,%ecx
  200340:	44 09 c9             	or     %r9d,%ecx
                    hpet->rid = static_cast<uint16>(r);
  200343:	66 41 89 48 14       	mov    %cx,0x14(%r8)
  200348:	e9 29 ff ff ff       	jmpq   200276 <_ZNK9Acpi_dmar5parseEv+0x98>
            case 4:
                Hpet::claim_dev (s->rid(), s->id);
                break;
        }
    }
}
  20034d:	58                   	pop    %rax
  20034e:	5b                   	pop    %rbx
  20034f:	5d                   	pop    %rbp
  200350:	c3                   	retq   
  200351:	90                   	nop

0000000000200352 <_ZNK9Acpi_rmrr5parseEv>:

void Acpi_rmrr::parse() const
{
  200352:	55                   	push   %rbp
  200353:	53                   	push   %rbx
  200354:	48 89 fd             	mov    %rdi,%rbp
  200357:	56                   	push   %rsi
    for (uint64 hpa = base & ~PAGE_MASK; hpa < limit; hpa += PAGE_SIZE)
  200358:	48 8b 5f 08          	mov    0x8(%rdi),%rbx
  20035c:	48 81 e3 00 f0 ff ff 	and    $0xfffffffffffff000,%rbx
  200363:	48 3b 5d 10          	cmp    0x10(%rbp),%rbx
  200367:	73 30                	jae    200399 <_ZNK9Acpi_rmrr5parseEv+0x47>
        Pd::kern.dpt.update (Pd::kern.quota, hpa, 0, hpa, Dpt::DPT_R | Dpt::DPT_W);
  200369:	6a 00                	pushq  $0x0
  20036b:	6a 00                	pushq  $0x0
  20036d:	48 89 da             	mov    %rbx,%rdx
  200370:	49 89 d8             	mov    %rbx,%r8
  200373:	31 c9                	xor    %ecx,%ecx
  200375:	41 b9 03 00 00 00    	mov    $0x3,%r9d
  20037b:	48 c7 c6 a8 3f 16 81 	mov    $0xffffffff81163fa8,%rsi
  200382:	48 c7 c7 48 3f 16 81 	mov    $0xffffffff81163f48,%rdi
    }
}

void Acpi_rmrr::parse() const
{
    for (uint64 hpa = base & ~PAGE_MASK; hpa < limit; hpa += PAGE_SIZE)
  200389:	48 81 c3 00 10 00 00 	add    $0x1000,%rbx
        Pd::kern.dpt.update (Pd::kern.quota, hpa, 0, hpa, Dpt::DPT_R | Dpt::DPT_W);
  200390:	e8 db 21 e1 80       	callq  ffffffff81012570 <_ZN3PteI3DptyLj4ELj9ELb1EE6updateER5QuotaymymNS1_4TypeEb>
    }
}

void Acpi_rmrr::parse() const
{
    for (uint64 hpa = base & ~PAGE_MASK; hpa < limit; hpa += PAGE_SIZE)
  200395:	5a                   	pop    %rdx
  200396:	59                   	pop    %rcx
  200397:	eb ca                	jmp    200363 <_ZNK9Acpi_rmrr5parseEv+0x11>
        Pd::kern.dpt.update (Pd::kern.quota, hpa, 0, hpa, Dpt::DPT_R | Dpt::DPT_W);

    for (Acpi_scope const *s = scope; s < reinterpret_cast<Acpi_scope *>(reinterpret_cast<mword>(this) + length); s = reinterpret_cast<Acpi_scope *>(reinterpret_cast<mword>(s) + s->length)) {
  200399:	48 8d 5d 18          	lea    0x18(%rbp),%rbx
  20039d:	0f b7 45 02          	movzwl 0x2(%rbp),%eax
  2003a1:	48 01 e8             	add    %rbp,%rax
  2003a4:	48 39 c3             	cmp    %rax,%rbx
  2003a7:	73 58                	jae    200401 <_ZNK9Acpi_rmrr5parseEv+0xaf>

        Dmar *dmar = nullptr;

        switch (s->type) {
  2003a9:	80 3b 01             	cmpb   $0x1,(%rbx)
  2003ac:	75 4a                	jne    2003f8 <_ZNK9Acpi_rmrr5parseEv+0xa6>
  2003ae:	0f b6 73 05          	movzbl 0x5(%rbx),%esi
  2003b2:	0f b6 43 06          	movzbl 0x6(%rbx),%eax
  2003b6:	c1 e6 08             	shl    $0x8,%esi
  2003b9:	c1 e0 03             	shl    $0x3,%eax
  2003bc:	09 c6                	or     %eax,%esi
  2003be:	0f b6 43 07          	movzbl 0x7(%rbx),%eax
  2003c2:	09 c6                	or     %eax,%esi
        inline void write (Register r, T v) { *reinterpret_cast<T volatile *>(reg_base + r) = v; }

        ALWAYS_INLINE
        static inline Pci *find_dev (unsigned long r)
        {
            for (Pci *pci = list; pci; pci = pci->next)
  2003c4:	48 8b 05 25 35 f6 80 	mov    -0x7f09cadb(%rip),%rax        # ffffffff811638f0 <_ZN3Pci4listE>
            case 1:
                dmar = Pci::find_dmar (s->rid());
  2003cb:	48 63 f6             	movslq %esi,%rsi
  2003ce:	48 85 c0             	test   %rax,%rax
  2003d1:	74 25                	je     2003f8 <_ZNK9Acpi_rmrr5parseEv+0xa6>
                if (pci->rid == r)
  2003d3:	0f b7 50 10          	movzwl 0x10(%rax),%edx
  2003d7:	48 39 f2             	cmp    %rsi,%rdx
  2003da:	75 17                	jne    2003f3 <_ZNK9Acpi_rmrr5parseEv+0xa1>
        ALWAYS_INLINE
        static inline Dmar *find_dmar (unsigned long r)
        {
            Pci *pci = find_dev (r);

            return pci ? pci->dmar : nullptr;
  2003dc:	48 8b 78 18          	mov    0x18(%rax),%rdi
                break;
        }

        if (dmar)
  2003e0:	48 85 ff             	test   %rdi,%rdi
  2003e3:	74 13                	je     2003f8 <_ZNK9Acpi_rmrr5parseEv+0xa6>
            dmar->assign (s->rid(), &Pd::kern);
  2003e5:	48 c7 c2 a0 3c 16 81 	mov    $0xffffffff81163ca0,%rdx
  2003ec:	e8 13 2d e0 80       	callq  ffffffff81003104 <_ZN4Dmar6assignEmP2Pd>
  2003f1:	eb 05                	jmp    2003f8 <_ZNK9Acpi_rmrr5parseEv+0xa6>
        inline void write (Register r, T v) { *reinterpret_cast<T volatile *>(reg_base + r) = v; }

        ALWAYS_INLINE
        static inline Pci *find_dev (unsigned long r)
        {
            for (Pci *pci = list; pci; pci = pci->next)
  2003f3:	48 8b 00             	mov    (%rax),%rax
  2003f6:	eb d6                	jmp    2003ce <_ZNK9Acpi_rmrr5parseEv+0x7c>
void Acpi_rmrr::parse() const
{
    for (uint64 hpa = base & ~PAGE_MASK; hpa < limit; hpa += PAGE_SIZE)
        Pd::kern.dpt.update (Pd::kern.quota, hpa, 0, hpa, Dpt::DPT_R | Dpt::DPT_W);

    for (Acpi_scope const *s = scope; s < reinterpret_cast<Acpi_scope *>(reinterpret_cast<mword>(this) + length); s = reinterpret_cast<Acpi_scope *>(reinterpret_cast<mword>(s) + s->length)) {
  2003f8:	0f b6 43 01          	movzbl 0x1(%rbx),%eax
  2003fc:	48 01 c3             	add    %rax,%rbx
  2003ff:	eb 9c                	jmp    20039d <_ZNK9Acpi_rmrr5parseEv+0x4b>
        }

        if (dmar)
            dmar->assign (s->rid(), &Pd::kern);
    }
}
  200401:	58                   	pop    %rax
  200402:	5b                   	pop    %rbx
  200403:	5d                   	pop    %rbp
  200404:	c3                   	retq   
  200405:	90                   	nop

0000000000200406 <_ZNK15Acpi_table_dmar5parseEv>:

void Acpi_table_dmar::parse() const
{
    if (!Cmdline::iommu)
  200406:	80 3d 93 19 e2 80 00 	cmpb   $0x0,-0x7f1de66d(%rip)        # ffffffff81021da0 <_ZN7Cmdline5iommuE>
  20040d:	0f 84 87 00 00 00    	je     20049a <_ZNK15Acpi_table_dmar5parseEv+0x94>
            dmar->assign (s->rid(), &Pd::kern);
    }
}

void Acpi_table_dmar::parse() const
{
  200413:	55                   	push   %rbp
  200414:	53                   	push   %rbx
    if (!Cmdline::iommu)
        return;

    for (Acpi_remap const *r = remap; r < reinterpret_cast<Acpi_remap *>(reinterpret_cast<mword>(this) + length); r = reinterpret_cast<Acpi_remap *>(reinterpret_cast<mword>(r) + r->length)) {
  200415:	48 8d 5f 30          	lea    0x30(%rdi),%rbx
            dmar->assign (s->rid(), &Pd::kern);
    }
}

void Acpi_table_dmar::parse() const
{
  200419:	52                   	push   %rdx
  20041a:	48 89 fd             	mov    %rdi,%rbp
    if (!Cmdline::iommu)
        return;

    for (Acpi_remap const *r = remap; r < reinterpret_cast<Acpi_remap *>(reinterpret_cast<mword>(this) + length); r = reinterpret_cast<Acpi_remap *>(reinterpret_cast<mword>(r) + r->length)) {
  20041d:	8b 45 04             	mov    0x4(%rbp),%eax
  200420:	48 01 e8             	add    %rbp,%rax
  200423:	48 39 c3             	cmp    %rax,%rbx
  200426:	73 28                	jae    200450 <_ZNK15Acpi_table_dmar5parseEv+0x4a>
        switch (r->type) {
  200428:	66 8b 03             	mov    (%rbx),%ax
  20042b:	66 85 c0             	test   %ax,%ax
  20042e:	74 0f                	je     20043f <_ZNK15Acpi_table_dmar5parseEv+0x39>
  200430:	66 ff c8             	dec    %ax
  200433:	75 12                	jne    200447 <_ZNK15Acpi_table_dmar5parseEv+0x41>
            case Acpi_remap::DMAR:
                static_cast<Acpi_dmar const *>(r)->parse();
                break;
            case Acpi_remap::RMRR:
                static_cast<Acpi_rmrr const *>(r)->parse();
  200435:	48 89 df             	mov    %rbx,%rdi
  200438:	e8 15 ff ff ff       	callq  200352 <_ZNK9Acpi_rmrr5parseEv>
                break;
  20043d:	eb 08                	jmp    200447 <_ZNK15Acpi_table_dmar5parseEv+0x41>
        return;

    for (Acpi_remap const *r = remap; r < reinterpret_cast<Acpi_remap *>(reinterpret_cast<mword>(this) + length); r = reinterpret_cast<Acpi_remap *>(reinterpret_cast<mword>(r) + r->length)) {
        switch (r->type) {
            case Acpi_remap::DMAR:
                static_cast<Acpi_dmar const *>(r)->parse();
  20043f:	48 89 df             	mov    %rbx,%rdi
  200442:	e8 97 fd ff ff       	callq  2001de <_ZNK9Acpi_dmar5parseEv>
void Acpi_table_dmar::parse() const
{
    if (!Cmdline::iommu)
        return;

    for (Acpi_remap const *r = remap; r < reinterpret_cast<Acpi_remap *>(reinterpret_cast<mword>(this) + length); r = reinterpret_cast<Acpi_remap *>(reinterpret_cast<mword>(r) + r->length)) {
  200447:	0f b7 43 02          	movzwl 0x2(%rbx),%eax
  20044b:	48 01 c3             	add    %rax,%rbx
  20044e:	eb cd                	jmp    20041d <_ZNK15Acpi_table_dmar5parseEv+0x17>

        ALWAYS_INLINE
        static inline void enable (unsigned flags)
        {
            if (!(flags & 1))
  200450:	f6 45 25 01          	testb  $0x1,0x25(%rbp)
  200454:	75 0a                	jne    200460 <_ZNK15Acpi_table_dmar5parseEv+0x5a>
                gcmd &= ~GCMD_IRE;
  200456:	81 25 18 12 e2 80 ff 	andl   $0xfdffffff,-0x7f1dede8(%rip)        # ffffffff81021678 <CTORS_E>
  20045d:	ff ff fd 

            for (Dmar *dmar = list; dmar; dmar = dmar->next)
  200460:	48 8b 05 f9 1b f6 80 	mov    -0x7f09e407(%rip),%rax        # ffffffff81162060 <_ZN4Dmar4listE>
  200467:	48 85 c0             	test   %rax,%rax
  20046a:	74 23                	je     20048f <_ZNK15Acpi_table_dmar5parseEv+0x89>
                dmar->command (gcmd);
  20046c:	8b 15 06 12 e2 80    	mov    -0x7f1dedfa(%rip),%edx        # ffffffff81021678 <CTORS_E>

        template <typename T>
        ALWAYS_INLINE
        inline void write (Reg reg, T val)
        {
            *reinterpret_cast<T volatile *>(reg_base + reg) = val;
  200472:	48 8b 48 08          	mov    0x8(%rax),%rcx
  200476:	89 51 18             	mov    %edx,0x18(%rcx)

        template <typename T>
        ALWAYS_INLINE
        inline T read (Reg reg)
        {
            return *reinterpret_cast<T volatile *>(reg_base + reg);
  200479:	48 8b 48 08          	mov    0x8(%rax),%rcx
  20047d:	8b 49 1c             	mov    0x1c(%rcx),%ecx

        ALWAYS_INLINE
        inline void command (uint32 val)
        {
            write<uint32>(REG_GCMD, val);
            while ((read<uint32>(REG_GSTS) & val) != val)
  200480:	21 d1                	and    %edx,%ecx
  200482:	39 d1                	cmp    %edx,%ecx
  200484:	74 04                	je     20048a <_ZNK15Acpi_table_dmar5parseEv+0x84>
}

ALWAYS_INLINE
static inline void pause()
{
    asm volatile ("pause" : : : "memory");
  200486:	f3 90                	pause  
  200488:	eb ef                	jmp    200479 <_ZNK15Acpi_table_dmar5parseEv+0x73>
        static inline void enable (unsigned flags)
        {
            if (!(flags & 1))
                gcmd &= ~GCMD_IRE;

            for (Dmar *dmar = list; dmar; dmar = dmar->next)
  20048a:	48 8b 00             	mov    (%rax),%rax
  20048d:	eb d8                	jmp    200467 <_ZNK15Acpi_table_dmar5parseEv+0x61>
        ALWAYS_INLINE
        static inline T sub (T &ptr, T v) { return __sync_sub_and_fetch (&ptr, v); }

        template <typename T>
        ALWAYS_INLINE
        static inline void set_mask (T &ptr, T v) { __sync_or_and_fetch (&ptr, v); }
  20048f:	f0 83 0d 79 6b f6 80 	lock orl $0x1,-0x7f099487(%rip)        # ffffffff81167010 <PAGE_H+0x10>
  200496:	01 
    }

    Dmar::enable (flags);

    Hip::set_feature (Hip::FEAT_IOMMU);
}
  200497:	58                   	pop    %rax
  200498:	5b                   	pop    %rbx
  200499:	5d                   	pop    %rbp
  20049a:	c3                   	retq   
  20049b:	90                   	nop

000000000020049c <_ZNK15Acpi_table_fadt5parseEv>:
#include "io.hpp"
#include "x86.hpp"

void Acpi_table_fadt::parse() const
{
    Acpi::irq     = sci_irq;
  20049c:	0f b7 47 2e          	movzwl 0x2e(%rdi),%eax
  2004a0:	89 05 62 17 e2 80    	mov    %eax,-0x7f1de89e(%rip)        # ffffffff81021c08 <_ZN4Acpi3irqE>
    Acpi::feature = flags;
  2004a6:	8b 47 70             	mov    0x70(%rdi),%eax
  2004a9:	89 05 61 17 e2 80    	mov    %eax,-0x7f1de89f(%rip)        # ffffffff81021c10 <_ZN4Acpi7featureE>

    // XXX: Use x_pm blocks if they exist

    if (pm1a_evt_blk) {
  2004af:	8b 47 38             	mov    0x38(%rdi),%eax
  2004b2:	85 c0                	test   %eax,%eax
  2004b4:	74 39                	je     2004ef <_ZNK15Acpi_table_fadt5parseEv+0x53>
        Acpi::pm1a_sts.init (Acpi_gas::IO, pm1_evt_len >> 1, pm1a_evt_blk);
  2004b6:	0f b6 57 58          	movzbl 0x58(%rdi),%edx
  2004ba:	89 c6                	mov    %eax,%esi
            FIXED       = 0x7f
        };

        void init (Asid reg_asid, unsigned reg_bytes, uint64 reg_addr)
        {
            asid = reg_asid;
  2004bc:	c6 05 15 18 e2 80 01 	movb   $0x1,-0x7f1de7eb(%rip)        # ffffffff81021cd8 <_ZN4Acpi8pm1a_stsE>
  2004c3:	48 89 35 12 18 e2 80 	mov    %rsi,-0x7f1de7ee(%rip)        # ffffffff81021cdc <_ZN4Acpi8pm1a_stsE+0x4>
  2004ca:	c6 05 e7 17 e2 80 01 	movb   $0x1,-0x7f1de819(%rip)        # ffffffff81021cb8 <_ZN4Acpi8pm1a_enaE>
  2004d1:	d1 fa                	sar    %edx
            bits = static_cast<uint8>(reg_bytes * 8);
  2004d3:	8d 0c d5 00 00 00 00 	lea    0x0(,%rdx,8),%ecx
        Acpi::pm1a_ena.init (Acpi_gas::IO, pm1_evt_len >> 1, pm1a_evt_blk + (pm1_evt_len >> 1));
  2004da:	01 d0                	add    %edx,%eax
  2004dc:	48 89 05 d9 17 e2 80 	mov    %rax,-0x7f1de827(%rip)        # ffffffff81021cbc <_ZN4Acpi8pm1a_enaE+0x4>
  2004e3:	88 0d f0 17 e2 80    	mov    %cl,-0x7f1de810(%rip)        # ffffffff81021cd9 <_ZN4Acpi8pm1a_stsE+0x1>
  2004e9:	88 0d ca 17 e2 80    	mov    %cl,-0x7f1de836(%rip)        # ffffffff81021cb9 <_ZN4Acpi8pm1a_enaE+0x1>
    }
    if (pm1b_evt_blk) {
  2004ef:	8b 47 3c             	mov    0x3c(%rdi),%eax
  2004f2:	85 c0                	test   %eax,%eax
  2004f4:	74 39                	je     20052f <_ZNK15Acpi_table_fadt5parseEv+0x93>
        Acpi::pm1b_sts.init (Acpi_gas::IO, pm1_evt_len >> 1, pm1b_evt_blk);
  2004f6:	0f b6 57 58          	movzbl 0x58(%rdi),%edx
  2004fa:	89 c6                	mov    %eax,%esi
            FIXED       = 0x7f
        };

        void init (Asid reg_asid, unsigned reg_bytes, uint64 reg_addr)
        {
            asid = reg_asid;
  2004fc:	c6 05 c5 17 e2 80 01 	movb   $0x1,-0x7f1de83b(%rip)        # ffffffff81021cc8 <_ZN4Acpi8pm1b_stsE>
  200503:	48 89 35 c2 17 e2 80 	mov    %rsi,-0x7f1de83e(%rip)        # ffffffff81021ccc <_ZN4Acpi8pm1b_stsE+0x4>
  20050a:	c6 05 97 17 e2 80 01 	movb   $0x1,-0x7f1de869(%rip)        # ffffffff81021ca8 <_ZN4Acpi8pm1b_enaE>
  200511:	d1 fa                	sar    %edx
            bits = static_cast<uint8>(reg_bytes * 8);
  200513:	8d 0c d5 00 00 00 00 	lea    0x0(,%rdx,8),%ecx
        Acpi::pm1b_ena.init (Acpi_gas::IO, pm1_evt_len >> 1, pm1b_evt_blk + (pm1_evt_len >> 1));
  20051a:	01 d0                	add    %edx,%eax
  20051c:	48 89 05 89 17 e2 80 	mov    %rax,-0x7f1de877(%rip)        # ffffffff81021cac <_ZN4Acpi8pm1b_enaE+0x4>
  200523:	88 0d a0 17 e2 80    	mov    %cl,-0x7f1de860(%rip)        # ffffffff81021cc9 <_ZN4Acpi8pm1b_stsE+0x1>
  200529:	88 0d 7a 17 e2 80    	mov    %cl,-0x7f1de886(%rip)        # ffffffff81021ca9 <_ZN4Acpi8pm1b_enaE+0x1>
    }

    if (pm1a_cnt_blk)
  20052f:	8b 57 40             	mov    0x40(%rdi),%edx
  200532:	85 d2                	test   %edx,%edx
  200534:	74 1c                	je     200552 <_ZNK15Acpi_table_fadt5parseEv+0xb6>
  200536:	8a 47 59             	mov    0x59(%rdi),%al
            FIXED       = 0x7f
        };

        void init (Asid reg_asid, unsigned reg_bytes, uint64 reg_addr)
        {
            asid = reg_asid;
  200539:	c6 05 58 17 e2 80 01 	movb   $0x1,-0x7f1de8a8(%rip)        # ffffffff81021c98 <_ZN4Acpi8pm1a_cntE>
            bits = static_cast<uint8>(reg_bytes * 8);
  200540:	c1 e0 03             	shl    $0x3,%eax
  200543:	88 05 50 17 e2 80    	mov    %al,-0x7f1de8b0(%rip)        # ffffffff81021c99 <_ZN4Acpi8pm1a_cntE+0x1>
        Acpi::pm1a_cnt.init (Acpi_gas::IO, pm1_cnt_len, pm1a_cnt_blk);
  200549:	89 d0                	mov    %edx,%eax
  20054b:	48 89 05 4a 17 e2 80 	mov    %rax,-0x7f1de8b6(%rip)        # ffffffff81021c9c <_ZN4Acpi8pm1a_cntE+0x4>

    if (pm1b_cnt_blk)
  200552:	8b 57 44             	mov    0x44(%rdi),%edx
  200555:	85 d2                	test   %edx,%edx
  200557:	74 1c                	je     200575 <_ZNK15Acpi_table_fadt5parseEv+0xd9>
  200559:	8a 47 59             	mov    0x59(%rdi),%al
            FIXED       = 0x7f
        };

        void init (Asid reg_asid, unsigned reg_bytes, uint64 reg_addr)
        {
            asid = reg_asid;
  20055c:	c6 05 25 17 e2 80 01 	movb   $0x1,-0x7f1de8db(%rip)        # ffffffff81021c88 <_ZN4Acpi8pm1b_cntE>
            bits = static_cast<uint8>(reg_bytes * 8);
  200563:	c1 e0 03             	shl    $0x3,%eax
  200566:	88 05 1d 17 e2 80    	mov    %al,-0x7f1de8e3(%rip)        # ffffffff81021c89 <_ZN4Acpi8pm1b_cntE+0x1>
        Acpi::pm1b_cnt.init (Acpi_gas::IO, pm1_cnt_len, pm1b_cnt_blk);
  20056c:	89 d0                	mov    %edx,%eax
  20056e:	48 89 05 17 17 e2 80 	mov    %rax,-0x7f1de8e9(%rip)        # ffffffff81021c8c <_ZN4Acpi8pm1b_cntE+0x4>

    if (pm2_cnt_blk)
  200575:	8b 57 48             	mov    0x48(%rdi),%edx
  200578:	85 d2                	test   %edx,%edx
  20057a:	74 1c                	je     200598 <_ZNK15Acpi_table_fadt5parseEv+0xfc>
  20057c:	8a 47 5a             	mov    0x5a(%rdi),%al
            FIXED       = 0x7f
        };

        void init (Asid reg_asid, unsigned reg_bytes, uint64 reg_addr)
        {
            asid = reg_asid;
  20057f:	c6 05 f2 16 e2 80 01 	movb   $0x1,-0x7f1de90e(%rip)        # ffffffff81021c78 <_ZN4Acpi7pm2_cntE>
            bits = static_cast<uint8>(reg_bytes * 8);
  200586:	c1 e0 03             	shl    $0x3,%eax
  200589:	88 05 ea 16 e2 80    	mov    %al,-0x7f1de916(%rip)        # ffffffff81021c79 <_ZN4Acpi7pm2_cntE+0x1>
        Acpi::pm2_cnt.init (Acpi_gas::IO, pm2_cnt_len, pm2_cnt_blk);
  20058f:	89 d0                	mov    %edx,%eax
  200591:	48 89 05 e4 16 e2 80 	mov    %rax,-0x7f1de91c(%rip)        # ffffffff81021c7c <_ZN4Acpi7pm2_cntE+0x4>

    if (pm_tmr_blk)
  200598:	8b 57 4c             	mov    0x4c(%rdi),%edx
  20059b:	85 d2                	test   %edx,%edx
  20059d:	74 1c                	je     2005bb <_ZNK15Acpi_table_fadt5parseEv+0x11f>
  20059f:	8a 47 5b             	mov    0x5b(%rdi),%al
            FIXED       = 0x7f
        };

        void init (Asid reg_asid, unsigned reg_bytes, uint64 reg_addr)
        {
            asid = reg_asid;
  2005a2:	c6 05 bf 16 e2 80 01 	movb   $0x1,-0x7f1de941(%rip)        # ffffffff81021c68 <_ZN4Acpi6pm_tmrE>
            bits = static_cast<uint8>(reg_bytes * 8);
  2005a9:	c1 e0 03             	shl    $0x3,%eax
  2005ac:	88 05 b7 16 e2 80    	mov    %al,-0x7f1de949(%rip)        # ffffffff81021c69 <_ZN4Acpi6pm_tmrE+0x1>
        Acpi::pm_tmr.init (Acpi_gas::IO, pm_tmr_len, pm_tmr_blk);
  2005b2:	89 d0                	mov    %edx,%eax
  2005b4:	48 89 05 b1 16 e2 80 	mov    %rax,-0x7f1de94f(%rip)        # ffffffff81021c6c <_ZN4Acpi6pm_tmrE+0x4>

    if (gpe0_blk) {
  2005bb:	8b 47 50             	mov    0x50(%rdi),%eax
  2005be:	85 c0                	test   %eax,%eax
  2005c0:	74 39                	je     2005fb <_ZNK15Acpi_table_fadt5parseEv+0x15f>
        Acpi::gpe0_sts.init (Acpi_gas::IO, gpe0_blk_len >> 1, gpe0_blk);
  2005c2:	0f b6 57 5c          	movzbl 0x5c(%rdi),%edx
  2005c6:	89 c6                	mov    %eax,%esi
            FIXED       = 0x7f
        };

        void init (Asid reg_asid, unsigned reg_bytes, uint64 reg_addr)
        {
            asid = reg_asid;
  2005c8:	c6 05 79 16 e2 80 01 	movb   $0x1,-0x7f1de987(%rip)        # ffffffff81021c48 <_ZN4Acpi8gpe0_stsE>
  2005cf:	48 89 35 76 16 e2 80 	mov    %rsi,-0x7f1de98a(%rip)        # ffffffff81021c4c <_ZN4Acpi8gpe0_stsE+0x4>
  2005d6:	c6 05 4b 16 e2 80 01 	movb   $0x1,-0x7f1de9b5(%rip)        # ffffffff81021c28 <_ZN4Acpi8gpe0_enaE>
  2005dd:	d1 fa                	sar    %edx
            bits = static_cast<uint8>(reg_bytes * 8);
  2005df:	8d 0c d5 00 00 00 00 	lea    0x0(,%rdx,8),%ecx
        Acpi::gpe0_ena.init (Acpi_gas::IO, gpe0_blk_len >> 1, gpe0_blk + (gpe0_blk_len >> 1));
  2005e6:	01 d0                	add    %edx,%eax
  2005e8:	48 89 05 3d 16 e2 80 	mov    %rax,-0x7f1de9c3(%rip)        # ffffffff81021c2c <_ZN4Acpi8gpe0_enaE+0x4>
  2005ef:	88 0d 54 16 e2 80    	mov    %cl,-0x7f1de9ac(%rip)        # ffffffff81021c49 <_ZN4Acpi8gpe0_stsE+0x1>
  2005f5:	88 0d 2e 16 e2 80    	mov    %cl,-0x7f1de9d2(%rip)        # ffffffff81021c29 <_ZN4Acpi8gpe0_enaE+0x1>
    }

    if (gpe1_blk) {
  2005fb:	8b 47 54             	mov    0x54(%rdi),%eax
  2005fe:	85 c0                	test   %eax,%eax
  200600:	74 39                	je     20063b <_ZNK15Acpi_table_fadt5parseEv+0x19f>
        Acpi::gpe1_sts.init (Acpi_gas::IO, gpe1_blk_len >> 1, gpe1_blk);
  200602:	0f b6 57 5d          	movzbl 0x5d(%rdi),%edx
  200606:	89 c6                	mov    %eax,%esi
            FIXED       = 0x7f
        };

        void init (Asid reg_asid, unsigned reg_bytes, uint64 reg_addr)
        {
            asid = reg_asid;
  200608:	c6 05 29 16 e2 80 01 	movb   $0x1,-0x7f1de9d7(%rip)        # ffffffff81021c38 <_ZN4Acpi8gpe1_stsE>
  20060f:	48 89 35 26 16 e2 80 	mov    %rsi,-0x7f1de9da(%rip)        # ffffffff81021c3c <_ZN4Acpi8gpe1_stsE+0x4>
  200616:	c6 05 fb 15 e2 80 01 	movb   $0x1,-0x7f1dea05(%rip)        # ffffffff81021c18 <_ZN4Acpi8gpe1_enaE>
  20061d:	d1 fa                	sar    %edx
            bits = static_cast<uint8>(reg_bytes * 8);
  20061f:	8d 0c d5 00 00 00 00 	lea    0x0(,%rdx,8),%ecx
        Acpi::gpe1_ena.init (Acpi_gas::IO, gpe1_blk_len >> 1, gpe1_blk + (gpe1_blk_len >> 1));
  200626:	01 d0                	add    %edx,%eax
  200628:	48 89 05 ed 15 e2 80 	mov    %rax,-0x7f1dea13(%rip)        # ffffffff81021c1c <_ZN4Acpi8gpe1_enaE+0x4>
  20062f:	88 0d 04 16 e2 80    	mov    %cl,-0x7f1de9fc(%rip)        # ffffffff81021c39 <_ZN4Acpi8gpe1_stsE+0x1>
  200635:	88 0d de 15 e2 80    	mov    %cl,-0x7f1dea22(%rip)        # ffffffff81021c19 <_ZN4Acpi8gpe1_enaE+0x1>
    }

    if (length >= 129) {
  20063b:	81 7f 04 80 00 00 00 	cmpl   $0x80,0x4(%rdi)
  200642:	76 20                	jbe    200664 <_ZNK15Acpi_table_fadt5parseEv+0x1c8>
        Acpi::reset_reg = reset_reg;
  200644:	48 8b 47 74          	mov    0x74(%rdi),%rax
  200648:	48 89 05 09 16 e2 80 	mov    %rax,-0x7f1de9f7(%rip)        # ffffffff81021c58 <_ZN4Acpi9reset_regE>
  20064f:	8b 47 7c             	mov    0x7c(%rdi),%eax
  200652:	89 05 08 16 e2 80    	mov    %eax,-0x7f1de9f8(%rip)        # ffffffff81021c60 <_ZN4Acpi9reset_regE+0x8>
        Acpi::reset_val = reset_value;
  200658:	8a 87 80 00 00 00    	mov    0x80(%rdi),%al
  20065e:	88 05 a8 15 e2 80    	mov    %al,-0x7f1dea58(%rip)        # ffffffff81021c0c <_ZN4Acpi9reset_valE>
    }

    if (smi_cmd && acpi_enable) {
  200664:	8b 57 30             	mov    0x30(%rdi),%edx
  200667:	85 d2                	test   %edx,%edx
  200669:	74 1c                	je     200687 <_ZNK15Acpi_table_fadt5parseEv+0x1eb>
  20066b:	8a 47 34             	mov    0x34(%rdi),%al
  20066e:	84 c0                	test   %al,%al
  200670:	74 15                	je     200687 <_ZNK15Acpi_table_fadt5parseEv+0x1eb>
#include "acpi_fadt.hpp"
#include "io.hpp"
#include "x86.hpp"

void Acpi_table_fadt::parse() const
{
  200672:	51                   	push   %rcx

        template <typename T>
        ALWAYS_INLINE
        static inline void out (unsigned port, T val)
        {
            asm volatile ("out %0, %w1" : : "a" (val), "Nd" (port));
  200673:	ee                   	out    %al,(%dx)
        Acpi::reset_val = reset_value;
    }

    if (smi_cmd && acpi_enable) {
        Io::out (smi_cmd, acpi_enable);
        while (!(Acpi::read (Acpi::PM1_CNT) & Acpi::PM1_CNT_SCI_EN))
  200674:	bf 02 00 00 00       	mov    $0x2,%edi
  200679:	e8 ae 05 e0 80       	callq  ffffffff81000c2c <_ZN4Acpi4readENS_8RegisterE>
  20067e:	a8 01                	test   $0x1,%al
  200680:	75 04                	jne    200686 <_ZNK15Acpi_table_fadt5parseEv+0x1ea>
  200682:	f3 90                	pause  
  200684:	eb ee                	jmp    200674 <_ZNK15Acpi_table_fadt5parseEv+0x1d8>
            pause();
    }
}
  200686:	58                   	pop    %rax
  200687:	c3                   	retq   

0000000000200688 <_ZNK15Acpi_table_hpet5parseEv>:
#include "hpet.hpp"
#include "pd.hpp"

void Acpi_table_hpet::parse() const
{
    if (hpet.asid == Acpi_gas::MEMORY)
  200688:	80 7f 28 00          	cmpb   $0x0,0x28(%rdi)
  20068c:	75 52                	jne    2006e0 <_ZNK15Acpi_table_hpet5parseEv+0x58>
#include "acpi_hpet.hpp"
#include "hpet.hpp"
#include "pd.hpp"

void Acpi_table_hpet::parse() const
{
  20068e:	53                   	push   %rbx
    public:
        ALWAYS_INLINE
        explicit inline Hpet (Paddr p, unsigned i) : List<Hpet> (list), phys (p), id (i), rid (0) {}

        ALWAYS_INLINE
        static inline void *operator new (size_t, Quota &quota) { return cache.alloc(quota); }
  20068f:	48 c7 c6 a8 3f 16 81 	mov    $0xffffffff81163fa8,%rsi
  200696:	48 89 fb             	mov    %rdi,%rbx
  200699:	48 c7 c7 60 2d 16 81 	mov    $0xffffffff81162d60,%rdi
  2006a0:	e8 89 52 e1 80       	callq  ffffffff8101592e <_ZN10Slab_cache5allocER5Quota>
    if (hpet.asid == Acpi_gas::MEMORY)
        new (Pd::kern.quota) Hpet (static_cast<Paddr>(hpet.addr), id);
  2006a5:	0f b6 73 34          	movzbl 0x34(%rbx),%esi
  2006a9:	48 8b 7b 2c          	mov    0x2c(%rbx),%rdi

    public:
        ALWAYS_INLINE
        explicit inline List (T *&list) : next (nullptr)
        {
            T **ptr; for (ptr = &list; *ptr; ptr = &(*ptr)->next) ; *ptr = static_cast<T *>(this);
  2006ad:	48 c7 c1 50 2d 16 81 	mov    $0xffffffff81162d50,%rcx
    protected:
        T *next;

    public:
        ALWAYS_INLINE
        explicit inline List (T *&list) : next (nullptr)
  2006b4:	48 c7 00 00 00 00 00 	movq   $0x0,(%rax)
        {
            T **ptr; for (ptr = &list; *ptr; ptr = &(*ptr)->next) ; *ptr = static_cast<T *>(this);
  2006bb:	48 8b 15 8e 26 f6 80 	mov    -0x7f09d972(%rip),%rdx        # ffffffff81162d50 <_ZN4Hpet4listE>
  2006c2:	48 85 d2             	test   %rdx,%rdx
  2006c5:	74 08                	je     2006cf <_ZNK15Acpi_table_hpet5parseEv+0x47>
  2006c7:	48 89 d1             	mov    %rdx,%rcx
  2006ca:	48 8b 12             	mov    (%rdx),%rdx
  2006cd:	eb f3                	jmp    2006c2 <_ZNK15Acpi_table_hpet5parseEv+0x3a>
  2006cf:	48 89 01             	mov    %rax,(%rcx)
        static Hpet *       list;
        static Slab_cache   cache;

    public:
        ALWAYS_INLINE
        explicit inline Hpet (Paddr p, unsigned i) : List<Hpet> (list), phys (p), id (i), rid (0) {}
  2006d2:	48 89 78 08          	mov    %rdi,0x8(%rax)
  2006d6:	89 70 10             	mov    %esi,0x10(%rax)
  2006d9:	66 c7 40 14 00 00    	movw   $0x0,0x14(%rax)
}
  2006df:	5b                   	pop    %rbx
  2006e0:	c3                   	retq   
  2006e1:	90                   	nop

00000000002006e2 <_ZN15Acpi_table_madt10parse_intrEPK9Acpi_apic>:

void Acpi_table_madt::parse_intr (Acpi_apic const *ptr)
{
    Acpi_intr const *p = static_cast<Acpi_intr const *>(ptr);

    unsigned irq = p->irq;
  2006e2:	0f b6 77 03          	movzbl 0x3(%rdi),%esi
    unsigned gsi = p->gsi;
  2006e6:	8b 47 04             	mov    0x4(%rdi),%eax

    if (EXPECT_FALSE (gsi >= NUM_GSI || irq >= NUM_IRQ || p->bus))
  2006e9:	83 fe 0f             	cmp    $0xf,%esi
  2006ec:	0f 97 c1             	seta   %cl
  2006ef:	83 f8 7f             	cmp    $0x7f,%eax
  2006f2:	0f 97 c2             	seta   %dl
  2006f5:	08 ca                	or     %cl,%dl
  2006f7:	0f 85 93 00 00 00    	jne    200790 <_ZN15Acpi_table_madt10parse_intrEPK9Acpi_apic+0xae>
  2006fd:	80 7f 02 00          	cmpb   $0x0,0x2(%rdi)
  200701:	0f 85 89 00 00 00    	jne    200790 <_ZN15Acpi_table_madt10parse_intrEPK9Acpi_apic+0xae>
        return;

    Gsi::irq_table[irq] = gsi;
  200707:	89 f1                	mov    %esi,%ecx
  200709:	89 04 8d 00 21 16 81 	mov    %eax,-0x7ee9df00(,%rcx,4)

    Gsi::gsi_table[gsi].pol = p->flags.pol == Acpi_inti::POL_LOW   || (p->flags.pol == Acpi_inti::POL_CONFORMING && irq == Acpi::irq);
  200710:	44 8a 47 08          	mov    0x8(%rdi),%r8b
  200714:	b1 01                	mov    $0x1,%cl
  200716:	41 83 e0 03          	and    $0x3,%r8d
  20071a:	41 80 f8 03          	cmp    $0x3,%r8b
  20071e:	74 10                	je     200730 <_ZN15Acpi_table_madt10parse_intrEPK9Acpi_apic+0x4e>
  200720:	31 c9                	xor    %ecx,%ecx
  200722:	45 84 c0             	test   %r8b,%r8b
  200725:	75 09                	jne    200730 <_ZN15Acpi_table_madt10parse_intrEPK9Acpi_apic+0x4e>
  200727:	3b 35 db 14 e2 80    	cmp    -0x7f1deb25(%rip),%esi        # ffffffff81021c08 <_ZN4Acpi3irqE>
  20072d:	0f 94 c1             	sete   %cl
  200730:	4c 6b c0 18          	imul   $0x18,%rax,%r8
  200734:	c1 e1 05             	shl    $0x5,%ecx
  200737:	45 8a 88 51 21 16 81 	mov    -0x7ee9deaf(%r8),%r9b
  20073e:	41 83 e1 df          	and    $0xffffffdf,%r9d
  200742:	44 09 c9             	or     %r9d,%ecx
  200745:	41 88 88 51 21 16 81 	mov    %cl,-0x7ee9deaf(%r8)
    Gsi::gsi_table[gsi].trg = p->flags.trg == Acpi_inti::TRG_LEVEL || (p->flags.trg == Acpi_inti::TRG_CONFORMING && irq == Acpi::irq);
  20074c:	8a 4f 08             	mov    0x8(%rdi),%cl
  20074f:	83 e1 0c             	and    $0xc,%ecx
  200752:	80 f9 0c             	cmp    $0xc,%cl
  200755:	74 0f                	je     200766 <_ZN15Acpi_table_madt10parse_intrEPK9Acpi_apic+0x84>
  200757:	84 c9                	test   %cl,%cl
  200759:	75 0d                	jne    200768 <_ZN15Acpi_table_madt10parse_intrEPK9Acpi_apic+0x86>
  20075b:	3b 35 a7 14 e2 80    	cmp    -0x7f1deb59(%rip),%esi        # ffffffff81021c08 <_ZN4Acpi3irqE>
  200761:	0f 94 c2             	sete   %dl
  200764:	eb 02                	jmp    200768 <_ZN15Acpi_table_madt10parse_intrEPK9Acpi_apic+0x86>
  200766:	b2 01                	mov    $0x1,%dl
  200768:	48 6b c0 18          	imul   $0x18,%rax,%rax
  20076c:	c1 e2 07             	shl    $0x7,%edx
  20076f:	8a 88 51 21 16 81    	mov    -0x7ee9deaf(%rax),%cl
  200775:	83 e1 7f             	and    $0x7f,%ecx
  200778:	09 ca                	or     %ecx,%edx

    if (irq == Acpi::irq)
  20077a:	3b 35 88 14 e2 80    	cmp    -0x7f1deb78(%rip),%esi        # ffffffff81021c08 <_ZN4Acpi3irqE>
        return;

    Gsi::irq_table[irq] = gsi;

    Gsi::gsi_table[gsi].pol = p->flags.pol == Acpi_inti::POL_LOW   || (p->flags.pol == Acpi_inti::POL_CONFORMING && irq == Acpi::irq);
    Gsi::gsi_table[gsi].trg = p->flags.trg == Acpi_inti::TRG_LEVEL || (p->flags.trg == Acpi_inti::TRG_CONFORMING && irq == Acpi::irq);
  200780:	88 90 51 21 16 81    	mov    %dl,-0x7ee9deaf(%rax)

    if (irq == Acpi::irq)
  200786:	75 08                	jne    200790 <_ZN15Acpi_table_madt10parse_intrEPK9Acpi_apic+0xae>
        sci_overridden = true;
  200788:	c6 05 71 14 e2 80 01 	movb   $0x1,-0x7f1deb8f(%rip)        # ffffffff81021c00 <_ZN15Acpi_table_madt14sci_overriddenE>
  20078f:	c3                   	retq   
  200790:	c3                   	retq   
  200791:	90                   	nop

0000000000200792 <_ZN15Acpi_table_madt11parse_lapicEPK9Acpi_apic>:

void Acpi_table_madt::parse_lapic (Acpi_apic const *ptr)
{
    Acpi_lapic const *p = static_cast<Acpi_lapic const *>(ptr);

    if (p->flags & 1 && Cpu::online < NUM_CPU) {
  200792:	f6 47 04 01          	testb  $0x1,0x4(%rdi)
  200796:	74 27                	je     2007bf <_ZN15Acpi_table_madt11parse_lapicEPK9Acpi_apic+0x2d>
  200798:	8b 05 a2 18 f6 80    	mov    -0x7f09e75e(%rip),%eax        # ffffffff81162040 <_ZN3Cpu6onlineE>
  20079e:	83 f8 3f             	cmp    $0x3f,%eax
  2007a1:	77 1c                	ja     2007bf <_ZN15Acpi_table_madt11parse_lapicEPK9Acpi_apic+0x2d>
        Cpu::acpi_id[Cpu::online]   = p->acpi_id;
  2007a3:	8a 4f 02             	mov    0x2(%rdi),%cl
  2007a6:	89 c2                	mov    %eax,%edx
        Cpu::apic_id[Cpu::online++] = p->apic_id;
  2007a8:	ff c0                	inc    %eax
  2007aa:	89 05 90 18 f6 80    	mov    %eax,-0x7f09e770(%rip)        # ffffffff81162040 <_ZN3Cpu6onlineE>
void Acpi_table_madt::parse_lapic (Acpi_apic const *ptr)
{
    Acpi_lapic const *p = static_cast<Acpi_lapic const *>(ptr);

    if (p->flags & 1 && Cpu::online < NUM_CPU) {
        Cpu::acpi_id[Cpu::online]   = p->acpi_id;
  2007b0:	88 8a 00 20 16 81    	mov    %cl,-0x7ee9e000(%rdx)
        Cpu::apic_id[Cpu::online++] = p->apic_id;
  2007b6:	8a 47 03             	mov    0x3(%rdi),%al
  2007b9:	88 82 c0 1f 16 81    	mov    %al,-0x7ee9e040(%rdx)
  2007bf:	c3                   	retq   

00000000002007c0 <_ZN15Acpi_table_madt12parse_ioapicEPK9Acpi_apic>:
    }
}

void Acpi_table_madt::parse_ioapic (Acpi_apic const *ptr)
{
  2007c0:	41 54                	push   %r12
  2007c2:	55                   	push   %rbp
    public:
        INIT
        Ioapic (Paddr, unsigned, unsigned);

        ALWAYS_INLINE
        static inline void *operator new (size_t, Quota &quota) { return cache.alloc(quota); }
  2007c3:	48 c7 c6 a8 3f 16 81 	mov    $0xffffffff81163fa8,%rsi
  2007ca:	53                   	push   %rbx
  2007cb:	48 89 fd             	mov    %rdi,%rbp
  2007ce:	48 c7 c7 40 38 16 81 	mov    $0xffffffff81163840,%rdi
  2007d5:	e8 54 51 e1 80       	callq  ffffffff8101592e <_ZN10Slab_cache5allocER5Quota>
    Acpi_ioapic const *p = static_cast<Acpi_ioapic const *>(ptr);

    Ioapic *ioapic = new (Pd::kern.quota) Ioapic (p->phys, p->id, p->gsi);
  2007da:	0f b6 55 02          	movzbl 0x2(%rbp),%edx
  2007de:	8b 75 04             	mov    0x4(%rbp),%esi
  2007e1:	48 89 c3             	mov    %rax,%rbx
  2007e4:	8b 4d 08             	mov    0x8(%rbp),%ecx
  2007e7:	48 89 c7             	mov    %rax,%rdi
  2007ea:	e8 71 0d 00 00       	callq  201560 <_ZN6IoapicC1Emjj>

    unsigned gsi = p->gsi;
  2007ef:	44 8b 65 08          	mov    0x8(%rbp),%r12d
        }

        ALWAYS_INLINE
        inline uint32 read (Register reg)
        {
            Lock_guard <Spinlock> guard (lock);
  2007f3:	48 8d 7b 1a          	lea    0x1a(%rbx),%rdi

        ALWAYS_INLINE
        static inline bool preempt_status()
        {
            mword flags = 0;
            asm volatile ("pushf; pop %0" : "=r" (flags));
  2007f7:	9c                   	pushfq 
  2007f8:	58                   	pop    %rax
            return flags & 0x200;
  2007f9:	48 c1 e8 09          	shr    $0x9,%rax

    public:
        ALWAYS_INLINE
        inline Lock_guard (T &l) : _lock (l), pre(Cpu::preempt_status())
        {
            if (pre)
  2007fd:	40 88 c5             	mov    %al,%bpl
  200800:	40 80 e5 01          	and    $0x1,%bpl
  200804:	74 2d                	je     200833 <_ZN15Acpi_table_madt12parse_ioapicEPK9Acpi_apic+0x73>
        }

        ALWAYS_INLINE
        static inline void preempt_disable()
        {
            assert (preemption);
  200806:	80 3d 23 ef df bf 00 	cmpb   $0x0,-0x402010dd(%rip)        # ffffffffbffff730 <_ZN3Cpu10preemptionE>
  20080d:	75 1c                	jne    20082b <_ZN15Acpi_table_madt12parse_ioapicEPK9Acpi_apic+0x6b>
  20080f:	49 c7 c0 d0 d3 01 81 	mov    $0xffffffff8101d3d0,%r8
  200816:	b9 b7 00 00 00       	mov    $0xb7,%ecx
  20081b:	48 c7 c2 22 d3 01 81 	mov    $0xffffffff8101d322,%rdx
  200822:	48 c7 c6 92 d3 01 81 	mov    $0xffffffff8101d392,%rsi
  200829:	eb 46                	jmp    200871 <_ZN15Acpi_table_madt12parse_ioapicEPK9Acpi_apic+0xb1>

            asm volatile ("cli" : : : "memory");
  20082b:	fa                   	cli    
            preemption = false;
  20082c:	c6 05 fd ee df bf 00 	movb   $0x0,-0x40201103(%rip)        # ffffffffbffff730 <_ZN3Cpu10preemptionE>
                Cpu::preempt_disable();

            _lock.lock();
  200833:	e8 56 06 e0 80       	callq  ffffffff81000e8e <_ZN8Spinlock4lockEv>
        };

        ALWAYS_INLINE
        inline void index (Register reg)
        {
            *reinterpret_cast<uint8 volatile *>(reg_base + IOAPIC_IDX) = reg;
  200838:	48 8b 43 08          	mov    0x8(%rbx),%rax
  20083c:	c6 00 01             	movb   $0x1,(%rax)
        ALWAYS_INLINE
        inline uint32 read (Register reg)
        {
            Lock_guard <Spinlock> guard (lock);
            index (reg);
            return *reinterpret_cast<uint32 volatile *>(reg_base + IOAPIC_WND);
  20083f:	48 8b 43 08          	mov    0x8(%rbx),%rax
  200843:	8b 50 10             	mov    0x10(%rax),%edx
        }

        ALWAYS_INLINE
        inline void unlock()
        {
            asm volatile ("incb %0" : "=m" (val) : : "memory");
  200846:	fe 43 1a             	incb   0x1a(%rbx)
        ALWAYS_INLINE
        inline ~Lock_guard()
        {
            _lock.unlock();

            if (pre)
  200849:	40 84 ed             	test   %bpl,%bpl
  20084c:	74 39                	je     200887 <_ZN15Acpi_table_madt12parse_ioapicEPK9Acpi_apic+0xc7>
        }

        ALWAYS_INLINE
        static inline void preempt_enable()
        {
            assert (!preemption);
  20084e:	80 3d db ee df bf 00 	cmpb   $0x0,-0x40201125(%rip)        # ffffffffbffff730 <_ZN3Cpu10preemptionE>
  200855:	74 28                	je     20087f <_ZN15Acpi_table_madt12parse_ioapicEPK9Acpi_apic+0xbf>
  200857:	49 c7 c0 a0 d3 01 81 	mov    $0xffffffff8101d3a0,%r8
  20085e:	b9 c0 00 00 00       	mov    $0xc0,%ecx
  200863:	48 c7 c2 22 d3 01 81 	mov    $0xffffffff8101d322,%rdx
  20086a:	48 c7 c6 91 d3 01 81 	mov    $0xffffffff8101d391,%rsi
  200871:	48 c7 c7 28 d2 01 81 	mov    $0xffffffff8101d228,%rdi
  200878:	31 c0                	xor    %eax,%eax
  20087a:	e8 d1 16 e0 80       	callq  ffffffff81001f50 <_ZN7Console5panicEPKcz>

            preemption = true;
  20087f:	c6 05 aa ee df bf 01 	movb   $0x1,-0x40201156(%rip)        # ffffffffbffff730 <_ZN3Cpu10preemptionE>
            asm volatile ("sti" : : : "memory");
  200886:	fb                   	sti    

        ALWAYS_INLINE
        inline unsigned prq() { return read (IOAPIC_VER) >> 15 & 0x1; }

        ALWAYS_INLINE
        inline unsigned irt_max() { return read (IOAPIC_VER) >> 16 & 0xff; }
  200887:	c1 ea 10             	shr    $0x10,%edx
  20088a:	44 89 e0             	mov    %r12d,%eax
  20088d:	0f b6 d2             	movzbl %dl,%edx
  200890:	89 c1                	mov    %eax,%ecx
  200892:	44 29 e1             	sub    %r12d,%ecx
    unsigned max = ioapic->irt_max();

    for (unsigned short i = 0; i <= max && gsi < NUM_GSI; i++, gsi++)
  200895:	39 d1                	cmp    %edx,%ecx
  200897:	77 16                	ja     2008af <_ZN15Acpi_table_madt12parse_ioapicEPK9Acpi_apic+0xef>
  200899:	83 f8 7f             	cmp    $0x7f,%eax
  20089c:	77 11                	ja     2008af <_ZN15Acpi_table_madt12parse_ioapicEPK9Acpi_apic+0xef>
        Gsi::gsi_table[gsi].ioapic = ioapic;
  20089e:	89 c1                	mov    %eax,%ecx
    Ioapic *ioapic = new (Pd::kern.quota) Ioapic (p->phys, p->id, p->gsi);

    unsigned gsi = p->gsi;
    unsigned max = ioapic->irt_max();

    for (unsigned short i = 0; i <= max && gsi < NUM_GSI; i++, gsi++)
  2008a0:	ff c0                	inc    %eax
        Gsi::gsi_table[gsi].ioapic = ioapic;
  2008a2:	48 6b c9 18          	imul   $0x18,%rcx,%rcx
  2008a6:	48 89 99 48 21 16 81 	mov    %rbx,-0x7ee9deb8(%rcx)
  2008ad:	eb e1                	jmp    200890 <_ZN15Acpi_table_madt12parse_ioapicEPK9Acpi_apic+0xd0>
}
  2008af:	5b                   	pop    %rbx
  2008b0:	5d                   	pop    %rbp
  2008b1:	41 5c                	pop    %r12
  2008b3:	c3                   	retq   

00000000002008b4 <_ZNK15Acpi_table_madt11parse_entryEN9Acpi_apic4TypeEPFvPKS0_E>:
        Io::out<uint8>(0x21, 0xff);
    }
}

void Acpi_table_madt::parse_entry (Acpi_apic::Type type, void (*handler)(Acpi_apic const *)) const
{
  2008b4:	41 55                	push   %r13
  2008b6:	41 54                	push   %r12
  2008b8:	49 89 d5             	mov    %rdx,%r13
  2008bb:	55                   	push   %rbp
  2008bc:	53                   	push   %rbx
    for (Acpi_apic const *ptr = apic; ptr < reinterpret_cast<Acpi_apic *>(reinterpret_cast<mword>(this) + length); ptr = reinterpret_cast<Acpi_apic *>(reinterpret_cast<mword>(ptr) + ptr->length))
  2008bd:	48 8d 5f 2c          	lea    0x2c(%rdi),%rbx
        Io::out<uint8>(0x21, 0xff);
    }
}

void Acpi_table_madt::parse_entry (Acpi_apic::Type type, void (*handler)(Acpi_apic const *)) const
{
  2008c1:	51                   	push   %rcx
  2008c2:	48 89 fd             	mov    %rdi,%rbp
  2008c5:	41 89 f4             	mov    %esi,%r12d
    for (Acpi_apic const *ptr = apic; ptr < reinterpret_cast<Acpi_apic *>(reinterpret_cast<mword>(this) + length); ptr = reinterpret_cast<Acpi_apic *>(reinterpret_cast<mword>(ptr) + ptr->length))
  2008c8:	8b 45 04             	mov    0x4(%rbp),%eax
  2008cb:	48 01 e8             	add    %rbp,%rax
  2008ce:	48 39 c3             	cmp    %rax,%rbx
  2008d1:	73 17                	jae    2008ea <_ZNK15Acpi_table_madt11parse_entryEN9Acpi_apic4TypeEPFvPKS0_E+0x36>
        if (ptr->type == type)
  2008d3:	0f b6 03             	movzbl (%rbx),%eax
  2008d6:	44 39 e0             	cmp    %r12d,%eax
  2008d9:	75 06                	jne    2008e1 <_ZNK15Acpi_table_madt11parse_entryEN9Acpi_apic4TypeEPFvPKS0_E+0x2d>
            (*handler)(ptr);
  2008db:	48 89 df             	mov    %rbx,%rdi
  2008de:	41 ff d5             	callq  *%r13
    }
}

void Acpi_table_madt::parse_entry (Acpi_apic::Type type, void (*handler)(Acpi_apic const *)) const
{
    for (Acpi_apic const *ptr = apic; ptr < reinterpret_cast<Acpi_apic *>(reinterpret_cast<mword>(this) + length); ptr = reinterpret_cast<Acpi_apic *>(reinterpret_cast<mword>(ptr) + ptr->length))
  2008e1:	0f b6 43 01          	movzbl 0x1(%rbx),%eax
  2008e5:	48 01 c3             	add    %rax,%rbx
  2008e8:	eb de                	jmp    2008c8 <_ZNK15Acpi_table_madt11parse_entryEN9Acpi_apic4TypeEPFvPKS0_E+0x14>
        if (ptr->type == type)
            (*handler)(ptr);
}
  2008ea:	58                   	pop    %rax
  2008eb:	5b                   	pop    %rbx
  2008ec:	5d                   	pop    %rbp
  2008ed:	41 5c                	pop    %r12
  2008ef:	41 5d                	pop    %r13
  2008f1:	c3                   	retq   

00000000002008f2 <_ZNK15Acpi_table_madt5parseEv>:
#include "lapic.hpp"
#include "vectors.hpp"
#include "pd.hpp"

void Acpi_table_madt::parse() const
{
  2008f2:	53                   	push   %rbx
    parse_entry (Acpi_apic::LAPIC,  &parse_lapic);
  2008f3:	31 f6                	xor    %esi,%esi
#include "lapic.hpp"
#include "vectors.hpp"
#include "pd.hpp"

void Acpi_table_madt::parse() const
{
  2008f5:	48 89 fb             	mov    %rdi,%rbx
    parse_entry (Acpi_apic::LAPIC,  &parse_lapic);
  2008f8:	48 c7 c2 92 07 20 00 	mov    $0x200792,%rdx
  2008ff:	e8 b0 ff ff ff       	callq  2008b4 <_ZNK15Acpi_table_madt11parse_entryEN9Acpi_apic4TypeEPFvPKS0_E>
    parse_entry (Acpi_apic::IOAPIC, &parse_ioapic);
  200904:	48 c7 c2 c0 07 20 00 	mov    $0x2007c0,%rdx
  20090b:	be 01 00 00 00       	mov    $0x1,%esi
  200910:	48 89 df             	mov    %rbx,%rdi
  200913:	e8 9c ff ff ff       	callq  2008b4 <_ZNK15Acpi_table_madt11parse_entryEN9Acpi_apic4TypeEPFvPKS0_E>
    parse_entry (Acpi_apic::INTR,   &parse_intr);
  200918:	48 c7 c2 e2 06 20 00 	mov    $0x2006e2,%rdx
  20091f:	be 02 00 00 00       	mov    $0x2,%esi
  200924:	48 89 df             	mov    %rbx,%rdi
  200927:	e8 88 ff ff ff       	callq  2008b4 <_ZNK15Acpi_table_madt11parse_entryEN9Acpi_apic4TypeEPFvPKS0_E>

    if (flags & 1) {
  20092c:	f6 43 28 01          	testb  $0x1,0x28(%rbx)
  200930:	74 14                	je     200946 <_ZNK15Acpi_table_madt5parseEv+0x54>
  200932:	b0 11                	mov    $0x11,%al
  200934:	e6 20                	out    %al,$0x20
  200936:	b0 20                	mov    $0x20,%al
  200938:	e6 21                	out    %al,$0x21
  20093a:	b0 04                	mov    $0x4,%al
  20093c:	e6 21                	out    %al,$0x21
  20093e:	b0 01                	mov    $0x1,%al
  200940:	e6 21                	out    %al,$0x21
  200942:	b0 ff                	mov    $0xff,%al
  200944:	e6 21                	out    %al,$0x21
        Io::out<uint8>(0x21, VEC_GSI);
        Io::out<uint8>(0x21, 0x4);
        Io::out<uint8>(0x21, 0x1);
        Io::out<uint8>(0x21, 0xff);
    }
}
  200946:	5b                   	pop    %rbx
  200947:	c3                   	retq   

0000000000200948 <_ZNK15Acpi_table_mcfg5parseEv>:
#include "acpi_mcfg.hpp"
#include "pci.hpp"

void Acpi_table_mcfg::parse() const
{
    for (Acpi_mcfg const *x = mcfg; x + 1 <= reinterpret_cast<Acpi_mcfg *>(reinterpret_cast<mword>(this) + length); x++)
  200948:	48 8d 57 2c          	lea    0x2c(%rdi),%rdx
  20094c:	8b 47 04             	mov    0x4(%rdi),%eax
  20094f:	48 83 c2 10          	add    $0x10,%rdx
  200953:	48 01 f8             	add    %rdi,%rax
  200956:	48 39 c2             	cmp    %rax,%rdx
  200959:	77 32                	ja     20098d <_ZNK15Acpi_table_mcfg5parseEv+0x45>
        if (!x->seg) {
  20095b:	66 83 7a f8 00       	cmpw   $0x0,-0x8(%rdx)
  200960:	75 ea                	jne    20094c <_ZNK15Acpi_table_mcfg5parseEv+0x4>
            Pci::bus_base = x->bus_s;
  200962:	0f b6 4a fa          	movzbl -0x6(%rdx),%ecx
  200966:	89 0d 9c 2f f6 80    	mov    %ecx,-0x7f09d064(%rip)        # ffffffff81163908 <_ZN3Pci8bus_baseE>
            Pci::cfg_base = static_cast<Paddr>(x->addr);
  20096c:	48 8b 42 f0          	mov    -0x10(%rdx),%rax
  200970:	48 89 05 89 2f f6 80 	mov    %rax,-0x7f09d077(%rip)        # ffffffff81163900 <_ZN3Pci8cfg_baseE>
            Pci::cfg_size = ((x->bus_e - x->bus_s + 1) << 8) * PAGE_SIZE;
  200977:	0f b6 42 fb          	movzbl -0x5(%rdx),%eax
  20097b:	29 c8                	sub    %ecx,%eax
  20097d:	ff c0                	inc    %eax
  20097f:	c1 e0 14             	shl    $0x14,%eax
  200982:	48 98                	cltq   
  200984:	48 89 05 6d 2f f6 80 	mov    %rax,-0x7f09d093(%rip)        # ffffffff811638f8 <_ZN3Pci8cfg_sizeE>
  20098b:	eb bf                	jmp    20094c <_ZNK15Acpi_table_mcfg5parseEv+0x4>
        }

    Pci::init();
  20098d:	31 f6                	xor    %esi,%esi
  20098f:	31 ff                	xor    %edi,%edi
  200991:	e9 12 0f 00 00       	jmpq   2018a8 <_ZN3Pci4initEjj>

0000000000200996 <_ZN9Acpi_rsdp4findEmj>:
#include "hpt.hpp"
#include "pd.hpp"

Acpi_rsdp *Acpi_rsdp::find (mword start, unsigned len)
{
    for (mword addr = start; addr < start + len; addr += 16) {
  200996:	89 f6                	mov    %esi,%esi
        Acpi_rsdp *rsdp = reinterpret_cast<Acpi_rsdp *>(addr);
        if (rsdp->good_signature() && rsdp->good_checksum())
  200998:	48 b9 52 53 44 20 50 	movabs $0x2052545020445352,%rcx
  20099f:	54 52 20 
#include "hpt.hpp"
#include "pd.hpp"

Acpi_rsdp *Acpi_rsdp::find (mword start, unsigned len)
{
    for (mword addr = start; addr < start + len; addr += 16) {
  2009a2:	48 01 fe             	add    %rdi,%rsi
  2009a5:	48 39 f7             	cmp    %rsi,%rdi
  2009a8:	73 25                	jae    2009cf <_ZN9Acpi_rsdp4findEmj+0x39>
        Acpi_rsdp *rsdp = reinterpret_cast<Acpi_rsdp *>(addr);
        if (rsdp->good_signature() && rsdp->good_checksum())
  2009aa:	48 39 0f             	cmp    %rcx,(%rdi)
  2009ad:	75 1a                	jne    2009c9 <_ZN9Acpi_rsdp4findEmj+0x33>
        ALWAYS_INLINE
        bool good_checksum (unsigned len = 20) const
        {
            uint8 check = 0;
            for (uint8 const *ptr = reinterpret_cast<uint8 const *>(this);
                              ptr < reinterpret_cast<uint8 const *>(this) + len;
  2009af:	4c 8d 47 14          	lea    0x14(%rdi),%r8
  2009b3:	48 89 f8             	mov    %rdi,%rax
  2009b6:	31 d2                	xor    %edx,%edx

        ALWAYS_INLINE
        bool good_checksum (unsigned len = 20) const
        {
            uint8 check = 0;
            for (uint8 const *ptr = reinterpret_cast<uint8 const *>(this);
  2009b8:	4c 39 c0             	cmp    %r8,%rax
  2009bb:	73 08                	jae    2009c5 <_ZN9Acpi_rsdp4findEmj+0x2f>
  2009bd:	48 ff c0             	inc    %rax
  2009c0:	02 50 ff             	add    -0x1(%rax),%dl
  2009c3:	eb f3                	jmp    2009b8 <_ZN9Acpi_rsdp4findEmj+0x22>
  2009c5:	84 d2                	test   %dl,%dl
  2009c7:	74 09                	je     2009d2 <_ZN9Acpi_rsdp4findEmj+0x3c>
#include "hpt.hpp"
#include "pd.hpp"

Acpi_rsdp *Acpi_rsdp::find (mword start, unsigned len)
{
    for (mword addr = start; addr < start + len; addr += 16) {
  2009c9:	48 83 c7 10          	add    $0x10,%rdi
  2009cd:	eb d6                	jmp    2009a5 <_ZN9Acpi_rsdp4findEmj+0xf>
        Acpi_rsdp *rsdp = reinterpret_cast<Acpi_rsdp *>(addr);
        if (rsdp->good_signature() && rsdp->good_checksum())
            return rsdp;
    }

    return nullptr;
  2009cf:	31 c0                	xor    %eax,%eax
  2009d1:	c3                   	retq   
  2009d2:	48 89 f8             	mov    %rdi,%rax
}
  2009d5:	c3                   	retq   

00000000002009d6 <_ZN9Acpi_rsdp5parseEv>:

void Acpi_rsdp::parse()
{
  2009d6:	53                   	push   %rbx
    Acpi_rsdp *rsdp;

    mword map = reinterpret_cast<mword>(Hpt::remap (Pd::kern.quota, 0));
  2009d7:	31 f6                	xor    %esi,%esi
  2009d9:	48 c7 c7 a8 3f 16 81 	mov    $0xffffffff81163fa8,%rdi
  2009e0:	e8 2d 77 e0 80       	callq  ffffffff81008112 <_ZN3Hpt5remapER5Quotam>

    if (!(rsdp = Acpi_rsdp::find (map + (*reinterpret_cast<uint16 *>(map + 0x40e) << 4), 0x400)) &&
  2009e5:	0f b7 b8 0e 04 00 00 	movzwl 0x40e(%rax),%edi
  2009ec:	be 00 04 00 00       	mov    $0x400,%esi

void Acpi_rsdp::parse()
{
    Acpi_rsdp *rsdp;

    mword map = reinterpret_cast<mword>(Hpt::remap (Pd::kern.quota, 0));
  2009f1:	48 89 c3             	mov    %rax,%rbx

    if (!(rsdp = Acpi_rsdp::find (map + (*reinterpret_cast<uint16 *>(map + 0x40e) << 4), 0x400)) &&
  2009f4:	c1 e7 04             	shl    $0x4,%edi
  2009f7:	48 63 ff             	movslq %edi,%rdi
  2009fa:	48 01 c7             	add    %rax,%rdi
  2009fd:	e8 94 ff ff ff       	callq  200996 <_ZN9Acpi_rsdp4findEmj>
  200a02:	48 85 c0             	test   %rax,%rax
  200a05:	75 16                	jne    200a1d <_ZN9Acpi_rsdp5parseEv+0x47>
        !(rsdp = Acpi_rsdp::find (map + 0xe0000, 0x20000)))
  200a07:	48 8d bb 00 00 0e 00 	lea    0xe0000(%rbx),%rdi
{
    Acpi_rsdp *rsdp;

    mword map = reinterpret_cast<mword>(Hpt::remap (Pd::kern.quota, 0));

    if (!(rsdp = Acpi_rsdp::find (map + (*reinterpret_cast<uint16 *>(map + 0x40e) << 4), 0x400)) &&
  200a0e:	be 00 00 02 00       	mov    $0x20000,%esi
  200a13:	e8 7e ff ff ff       	callq  200996 <_ZN9Acpi_rsdp4findEmj>
  200a18:	48 85 c0             	test   %rax,%rax
  200a1b:	74 37                	je     200a54 <_ZN9Acpi_rsdp5parseEv+0x7e>
        !(rsdp = Acpi_rsdp::find (map + 0xe0000, 0x20000)))
        return;

    Acpi::rsdt = rsdp->rsdt_addr;
  200a1d:	8b 48 10             	mov    0x10(%rax),%ecx

    if (rsdp->revision > 1 && rsdp->good_checksum (rsdp->length))
  200a20:	80 78 0f 01          	cmpb   $0x1,0xf(%rax)

    if (!(rsdp = Acpi_rsdp::find (map + (*reinterpret_cast<uint16 *>(map + 0x40e) << 4), 0x400)) &&
        !(rsdp = Acpi_rsdp::find (map + 0xe0000, 0x20000)))
        return;

    Acpi::rsdt = rsdp->rsdt_addr;
  200a24:	48 89 0d c5 12 e2 80 	mov    %rcx,-0x7f1ded3b(%rip)        # ffffffff81021cf0 <_ZN4Acpi4rsdtE>

    if (rsdp->revision > 1 && rsdp->good_checksum (rsdp->length))
  200a2b:	76 27                	jbe    200a54 <_ZN9Acpi_rsdp5parseEv+0x7e>
                              ptr < reinterpret_cast<uint8 const *>(this) + len;
  200a2d:	8b 70 14             	mov    0x14(%rax),%esi
  200a30:	48 89 c2             	mov    %rax,%rdx
        }

        ALWAYS_INLINE
        bool good_checksum (unsigned len = 20) const
        {
            uint8 check = 0;
  200a33:	31 c9                	xor    %ecx,%ecx
            for (uint8 const *ptr = reinterpret_cast<uint8 const *>(this);
                              ptr < reinterpret_cast<uint8 const *>(this) + len;
  200a35:	48 01 c6             	add    %rax,%rsi

        ALWAYS_INLINE
        bool good_checksum (unsigned len = 20) const
        {
            uint8 check = 0;
            for (uint8 const *ptr = reinterpret_cast<uint8 const *>(this);
  200a38:	48 39 f2             	cmp    %rsi,%rdx
  200a3b:	73 08                	jae    200a45 <_ZN9Acpi_rsdp5parseEv+0x6f>
  200a3d:	48 ff c2             	inc    %rdx
  200a40:	02 4a ff             	add    -0x1(%rdx),%cl
  200a43:	eb f3                	jmp    200a38 <_ZN9Acpi_rsdp5parseEv+0x62>
  200a45:	84 c9                	test   %cl,%cl
  200a47:	75 0b                	jne    200a54 <_ZN9Acpi_rsdp5parseEv+0x7e>
        Acpi::xsdt = static_cast<Paddr>(rsdp->xsdt_addr);
  200a49:	48 8b 40 18          	mov    0x18(%rax),%rax
  200a4d:	48 89 05 94 12 e2 80 	mov    %rax,-0x7f1ded6c(%rip)        # ffffffff81021ce8 <_ZN4Acpi4xsdtE>
}
  200a54:	5b                   	pop    %rbx
  200a55:	c3                   	retq   

0000000000200a56 <_ZNK15Acpi_table_rsdt5parseEmm>:
    { SIG ('H','P','E','T'),    &Acpi::hpet },
    { SIG ('M','C','F','G'),    &Acpi::mcfg },
};

void Acpi_table_rsdt::parse (Paddr addr, size_t size) const
{
  200a56:	55                   	push   %rbp
  200a57:	48 89 e5             	mov    %rsp,%rbp
  200a5a:	41 57                	push   %r15
  200a5c:	41 56                	push   %r14
  200a5e:	41 55                	push   %r13
  200a60:	41 54                	push   %r12
  200a62:	49 89 d6             	mov    %rdx,%r14
  200a65:	53                   	push   %rbx
  200a66:	49 89 fc             	mov    %rdi,%r12
  200a69:	48 83 ec 18          	sub    $0x18,%rsp
  200a6d:	48 89 65 c8          	mov    %rsp,-0x38(%rbp)
    if (!good_checksum (addr))
  200a71:	e8 b6 00 00 00       	callq  200b2c <_ZNK10Acpi_table13good_checksumEm>
  200a76:	84 c0                	test   %al,%al
  200a78:	0f 84 9f 00 00 00    	je     200b1d <_ZNK15Acpi_table_rsdt5parseEmm+0xc7>
            Paddr * const ptr;
        } map[];

        unsigned long entries (size_t size) const
        {
            return (length - sizeof (Acpi_table)) / size;
  200a7e:	41 8b 44 24 04       	mov    0x4(%r12),%eax
  200a83:	31 d2                	xor    %edx,%edx
  200a85:	48 83 e8 24          	sub    $0x24,%rax
  200a89:	49 f7 f6             	div    %r14
  200a8c:	49 89 c5             	mov    %rax,%r13
        return;

    unsigned long count = entries (size);

    Paddr table[count];
  200a8f:	48 8d 04 c5 16 00 00 	lea    0x16(,%rax,8),%rax
  200a96:	00 
  200a97:	48 83 e0 f0          	and    $0xfffffffffffffff0,%rax
  200a9b:	48 29 c4             	sub    %rax,%rsp
    for (unsigned i = 0; i < count; i++)
  200a9e:	31 c0                	xor    %eax,%eax
    if (!good_checksum (addr))
        return;

    unsigned long count = entries (size);

    Paddr table[count];
  200aa0:	49 89 e7             	mov    %rsp,%r15
    for (unsigned i = 0; i < count; i++)
  200aa3:	89 c1                	mov    %eax,%ecx
  200aa5:	4c 39 e9             	cmp    %r13,%rcx
  200aa8:	73 1a                	jae    200ac4 <_ZNK15Acpi_table_rsdt5parseEmm+0x6e>
        table[i] = static_cast<Paddr>(size == sizeof (*xsdt) ? xsdt[i] : rsdt[i]);
  200aaa:	49 83 fe 08          	cmp    $0x8,%r14
  200aae:	75 07                	jne    200ab7 <_ZNK15Acpi_table_rsdt5parseEmm+0x61>
  200ab0:	49 8b 54 cc 24       	mov    0x24(%r12,%rcx,8),%rdx
  200ab5:	eb 05                	jmp    200abc <_ZNK15Acpi_table_rsdt5parseEmm+0x66>
  200ab7:	41 8b 54 8c 24       	mov    0x24(%r12,%rcx,4),%edx
  200abc:	49 89 14 cf          	mov    %rdx,(%r15,%rcx,8)
        return;

    unsigned long count = entries (size);

    Paddr table[count];
    for (unsigned i = 0; i < count; i++)
  200ac0:	ff c0                	inc    %eax
  200ac2:	eb df                	jmp    200aa3 <_ZNK15Acpi_table_rsdt5parseEmm+0x4d>
  200ac4:	45 31 e4             	xor    %r12d,%r12d
        table[i] = static_cast<Paddr>(size == sizeof (*xsdt) ? xsdt[i] : rsdt[i]);

    for (unsigned i = 0; i < count; i++) {
  200ac7:	44 89 e0             	mov    %r12d,%eax
  200aca:	4c 39 e8             	cmp    %r13,%rax
  200acd:	73 4a                	jae    200b19 <_ZNK15Acpi_table_rsdt5parseEmm+0xc3>

        Acpi_table *acpi = static_cast<Acpi_table *>(Hpt::remap (Pd::kern.quota, table[i]));
  200acf:	4d 8b 34 c7          	mov    (%r15,%rax,8),%r14
  200ad3:	48 c7 c7 a8 3f 16 81 	mov    $0xffffffff81163fa8,%rdi
  200ada:	4c 89 f6             	mov    %r14,%rsi
  200add:	e8 30 76 e0 80       	callq  ffffffff81008112 <_ZN3Hpt5remapER5Quotam>

        if (acpi->good_checksum (table[i]))
  200ae2:	4c 89 f6             	mov    %r14,%rsi
  200ae5:	48 89 c7             	mov    %rax,%rdi
    for (unsigned i = 0; i < count; i++)
        table[i] = static_cast<Paddr>(size == sizeof (*xsdt) ? xsdt[i] : rsdt[i]);

    for (unsigned i = 0; i < count; i++) {

        Acpi_table *acpi = static_cast<Acpi_table *>(Hpt::remap (Pd::kern.quota, table[i]));
  200ae8:	48 89 c3             	mov    %rax,%rbx

        if (acpi->good_checksum (table[i]))
  200aeb:	e8 3c 00 00 00       	callq  200b2c <_ZNK10Acpi_table13good_checksumEm>
  200af0:	84 c0                	test   %al,%al
  200af2:	74 20                	je     200b14 <_ZNK15Acpi_table_rsdt5parseEmm+0xbe>
  200af4:	31 c9                	xor    %ecx,%ecx
            for (unsigned j = 0; j < sizeof map / sizeof *map; j++)
                if (acpi->signature == map[j].sig)
  200af6:	8b 81 80 1d 20 00    	mov    0x201d80(%rcx),%eax
  200afc:	39 03                	cmp    %eax,(%rbx)
  200afe:	75 0a                	jne    200b0a <_ZNK15Acpi_table_rsdt5parseEmm+0xb4>
                    *map[j].ptr = table[i];
  200b00:	48 8b 81 84 1d 20 00 	mov    0x201d84(%rcx),%rax
  200b07:	4c 89 30             	mov    %r14,(%rax)
  200b0a:	48 83 c1 0c          	add    $0xc,%rcx
    for (unsigned i = 0; i < count; i++) {

        Acpi_table *acpi = static_cast<Acpi_table *>(Hpt::remap (Pd::kern.quota, table[i]));

        if (acpi->good_checksum (table[i]))
            for (unsigned j = 0; j < sizeof map / sizeof *map; j++)
  200b0e:	48 83 f9 3c          	cmp    $0x3c,%rcx
  200b12:	75 e2                	jne    200af6 <_ZNK15Acpi_table_rsdt5parseEmm+0xa0>

    Paddr table[count];
    for (unsigned i = 0; i < count; i++)
        table[i] = static_cast<Paddr>(size == sizeof (*xsdt) ? xsdt[i] : rsdt[i]);

    for (unsigned i = 0; i < count; i++) {
  200b14:	41 ff c4             	inc    %r12d
  200b17:	eb ae                	jmp    200ac7 <_ZNK15Acpi_table_rsdt5parseEmm+0x71>
  200b19:	48 8b 65 c8          	mov    -0x38(%rbp),%rsp
        if (acpi->good_checksum (table[i]))
            for (unsigned j = 0; j < sizeof map / sizeof *map; j++)
                if (acpi->signature == map[j].sig)
                    *map[j].ptr = table[i];
    }
}
  200b1d:	48 8d 65 d8          	lea    -0x28(%rbp),%rsp
  200b21:	5b                   	pop    %rbx
  200b22:	41 5c                	pop    %r12
  200b24:	41 5d                	pop    %r13
  200b26:	41 5e                	pop    %r14
  200b28:	41 5f                	pop    %r15
  200b2a:	5d                   	pop    %rbp
  200b2b:	c3                   	retq   

0000000000200b2c <_ZNK10Acpi_table13good_checksumEm>:
bool Acpi_table::good_checksum (Paddr addr) const
{
    uint8 check = 0;

    for (uint8 const *ptr = reinterpret_cast<uint8 const *>(this);
                      ptr < reinterpret_cast<uint8 const *>(this) + length;
  200b2c:	8b 57 04             	mov    0x4(%rdi),%edx
#include "acpi_table.hpp"
#include "stdio.hpp"

bool Acpi_table::good_checksum (Paddr addr) const
{
    uint8 check = 0;
  200b2f:	31 c0                	xor    %eax,%eax

    for (uint8 const *ptr = reinterpret_cast<uint8 const *>(this);
                      ptr < reinterpret_cast<uint8 const *>(this) + length;
  200b31:	48 01 fa             	add    %rdi,%rdx

bool Acpi_table::good_checksum (Paddr addr) const
{
    uint8 check = 0;

    for (uint8 const *ptr = reinterpret_cast<uint8 const *>(this);
  200b34:	48 39 d7             	cmp    %rdx,%rdi
  200b37:	73 08                	jae    200b41 <_ZNK10Acpi_table13good_checksumEm+0x15>
  200b39:	48 ff c7             	inc    %rdi
  200b3c:	02 47 ff             	add    -0x1(%rdi),%al
  200b3f:	eb f3                	jmp    200b34 <_ZNK10Acpi_table13good_checksumEm+0x8>
           oem_id,
           length,
           check ? "bad" : "ok",
           static_cast<unsigned int>(checksum));

    return !check;
  200b41:	84 c0                	test   %al,%al
  200b43:	0f 94 c0             	sete   %al
}
  200b46:	c3                   	retq   
  200b47:	90                   	nop

0000000000200b48 <_ZN5BuddyC1Emmmm>:
                        reinterpret_cast<mword>(&_mempool_l),
                        reinterpret_cast<mword>(&_mempool_f),
                        reinterpret_cast<mword>(&_mempool_e) -
                        reinterpret_cast<mword>(&_mempool_l));

Buddy::Buddy (mword phys, mword virt, mword f_addr, size_t size)
  200b48:	41 54                	push   %r12
  200b4a:	49 89 cc             	mov    %rcx,%r12

ALWAYS_INLINE
inline long int bit_scan_reverse (mword val)
{
    if (EXPECT_FALSE (!val))
        return -1;
  200b4d:	48 83 c9 ff          	or     $0xffffffffffffffff,%rcx
#include "util.hpp"

ALWAYS_INLINE
inline long int bit_scan_reverse (mword val)
{
    if (EXPECT_FALSE (!val))
  200b51:	4d 85 c0             	test   %r8,%r8
  200b54:	55                   	push   %rbp
  200b55:	48 89 fd             	mov    %rdi,%rbp
  200b58:	53                   	push   %rbx
  200b59:	48 89 d3             	mov    %rdx,%rbx
    private:
        uint16 val;

    public:
        ALWAYS_INLINE
        inline Spinlock() : val (0) {}
  200b5c:	66 c7 07 00 00       	movw   $0x0,(%rdi)
  200b61:	74 04                	je     200b67 <_ZN5BuddyC1Emmmm+0x1f>
        return -1;

    asm volatile ("bsr %1, %0" : "=r" (val) : "rm" (val));

    return val;
  200b63:	49 0f bd c8          	bsr    %r8,%rcx
{
    // Compute maximum aligned block size
    unsigned long bit = bit_scan_reverse (size);

    // Compute maximum aligned physical block address (base)
    base = phys_to_virt (align_up (phys, 1ul << bit));
  200b67:	b8 01 00 00 00       	mov    $0x1,%eax
  200b6c:	48 d3 e0             	shl    %cl,%rax

    // Convert block size to page order
    order = bit + 1 - PAGE_BITS;
  200b6f:	48 83 e9 0b          	sub    $0xb,%rcx
  200b73:	48 89 4d 20          	mov    %rcx,0x20(%rbp)
}

ALWAYS_INLINE
static inline mword align_dn (mword val, mword align)
{
    val &= ~(align - 1);                // Expect power-of-2
  200b77:	48 89 c2             	mov    %rax,%rdx
}

ALWAYS_INLINE
static inline mword align_up (mword val, mword align)
{
    val += (align - 1);                 // Expect power-of-2
  200b7a:	48 8d 44 30 ff       	lea    -0x1(%rax,%rsi,1),%rax
           phys,
           phys + size,
           order);

    // Allocate block-list heads
    size -= order * sizeof *head;
  200b7f:	48 6b c9 18          	imul   $0x18,%rcx,%rcx
}

ALWAYS_INLINE
static inline mword align_dn (mword val, mword align)
{
    val &= ~(align - 1);                // Expect power-of-2
  200b83:	48 f7 da             	neg    %rdx
  200b86:	48 89 d6             	mov    %rdx,%rsi
    head = reinterpret_cast<Block *>(virt + size);

    // Allocate block-index storage
    size -= size / (PAGE_SIZE + sizeof *index) * sizeof *index;
  200b89:	31 d2                	xor    %edx,%edx
  200b8b:	48 21 c6             	and    %rax,%rsi
        }

        ALWAYS_INLINE
        inline mword phys_to_virt (mword phys)
        {
            return phys + reinterpret_cast<mword>(&OFFSET);
  200b8e:	48 81 c6 00 00 c0 80 	add    $0xffffffff80c00000,%rsi
           phys,
           phys + size,
           order);

    // Allocate block-list heads
    size -= order * sizeof *head;
  200b95:	49 29 c8             	sub    %rcx,%r8
    head = reinterpret_cast<Block *>(virt + size);

    // Allocate block-index storage
    size -= size / (PAGE_SIZE + sizeof *index) * sizeof *index;
  200b98:	b9 18 10 00 00       	mov    $0x1018,%ecx
{
    // Compute maximum aligned block size
    unsigned long bit = bit_scan_reverse (size);

    // Compute maximum aligned physical block address (base)
    base = phys_to_virt (align_up (phys, 1ul << bit));
  200b9d:	48 89 75 18          	mov    %rsi,0x18(%rbp)
           phys + size,
           order);

    // Allocate block-list heads
    size -= order * sizeof *head;
    head = reinterpret_cast<Block *>(virt + size);
  200ba1:	49 8d 04 18          	lea    (%r8,%rbx,1),%rax
        }

        ALWAYS_INLINE
        inline signed long page_to_index (mword l_addr)
        {
            return l_addr / PAGE_SIZE - base / PAGE_SIZE;
  200ba5:	48 c1 ee 0c          	shr    $0xc,%rsi
  200ba9:	48 89 45 30          	mov    %rax,0x30(%rbp)

    // Allocate block-index storage
    size -= size / (PAGE_SIZE + sizeof *index) * sizeof *index;
  200bad:	4c 89 c0             	mov    %r8,%rax
  200bb0:	48 f7 f1             	div    %rcx
  200bb3:	48 6b c0 18          	imul   $0x18,%rax,%rax
  200bb7:	49 29 c0             	sub    %rax,%r8
  200bba:	48 89 d8             	mov    %rbx,%rax
  200bbd:	48 c1 e8 0c          	shr    $0xc,%rax
    size &= ~PAGE_MASK;
  200bc1:	49 81 e0 00 f0 ff ff 	and    $0xfffffffffffff000,%r8
  200bc8:	48 29 f0             	sub    %rsi,%rax
    min_idx = page_to_index (virt);
    max_idx = page_to_index (virt + size);
  200bcb:	4c 01 c3             	add    %r8,%rbx
    head = reinterpret_cast<Block *>(virt + size);

    // Allocate block-index storage
    size -= size / (PAGE_SIZE + sizeof *index) * sizeof *index;
    size &= ~PAGE_MASK;
    min_idx = page_to_index (virt);
  200bce:	48 89 45 10          	mov    %rax,0x10(%rbp)
  200bd2:	48 89 da             	mov    %rbx,%rdx
    max_idx = page_to_index (virt + size);
    index = reinterpret_cast<Block *>(virt + size) - min_idx;
  200bd5:	48 89 df             	mov    %rbx,%rdi
  200bd8:	48 6b c0 18          	imul   $0x18,%rax,%rax
  200bdc:	48 c1 ea 0c          	shr    $0xc,%rdx
  200be0:	48 29 f2             	sub    %rsi,%rdx
  200be3:	48 89 55 08          	mov    %rdx,0x8(%rbp)

    for (unsigned i = 0; i < order; i++)
  200be7:	31 d2                	xor    %edx,%edx
    // Allocate block-index storage
    size -= size / (PAGE_SIZE + sizeof *index) * sizeof *index;
    size &= ~PAGE_MASK;
    min_idx = page_to_index (virt);
    max_idx = page_to_index (virt + size);
    index = reinterpret_cast<Block *>(virt + size) - min_idx;
  200be9:	48 29 c7             	sub    %rax,%rdi
  200bec:	48 89 7d 28          	mov    %rdi,0x28(%rbp)

    for (unsigned i = 0; i < order; i++)
  200bf0:	89 d0                	mov    %edx,%eax
  200bf2:	48 3b 45 20          	cmp    0x20(%rbp),%rax
  200bf6:	73 13                	jae    200c0b <_ZN5BuddyC1Emmmm+0xc3>
        head[i].next = head[i].prev = head + i;
  200bf8:	48 6b c0 18          	imul   $0x18,%rax,%rax
    size &= ~PAGE_MASK;
    min_idx = page_to_index (virt);
    max_idx = page_to_index (virt + size);
    index = reinterpret_cast<Block *>(virt + size) - min_idx;

    for (unsigned i = 0; i < order; i++)
  200bfc:	ff c2                	inc    %edx
        head[i].next = head[i].prev = head + i;
  200bfe:	48 03 45 30          	add    0x30(%rbp),%rax
  200c02:	48 89 00             	mov    %rax,(%rax)
  200c05:	48 89 40 08          	mov    %rax,0x8(%rax)
  200c09:	eb e5                	jmp    200bf0 <_ZN5BuddyC1Emmmm+0xa8>

    for (mword i = f_addr; i < virt + size; i += PAGE_SIZE)
  200c0b:	49 39 dc             	cmp    %rbx,%r12
  200c0e:	73 1b                	jae    200c2b <_ZN5BuddyC1Emmmm+0xe3>
        free (i, Quota::init);
  200c10:	4c 89 e6             	mov    %r12,%rsi
  200c13:	48 c7 c2 70 1d 02 81 	mov    $0xffffffff81021d70,%rdx
  200c1a:	48 89 ef             	mov    %rbp,%rdi
  200c1d:	e8 8c 09 e0 80       	callq  ffffffff810015ae <_ZN5Buddy4freeEmR5Quota>
    index = reinterpret_cast<Block *>(virt + size) - min_idx;

    for (unsigned i = 0; i < order; i++)
        head[i].next = head[i].prev = head + i;

    for (mword i = f_addr; i < virt + size; i += PAGE_SIZE)
  200c22:	49 81 c4 00 10 00 00 	add    $0x1000,%r12
  200c29:	eb e0                	jmp    200c0b <_ZN5BuddyC1Emmmm+0xc3>
        free (i, Quota::init);
}
  200c2b:	5b                   	pop    %rbx
  200c2c:	5d                   	pop    %rbp
  200c2d:	41 5c                	pop    %r12
  200c2f:	c3                   	retq   

0000000000200c30 <_ZN7Cmdline7get_argEPPc>:
    { "novpid",     &Cmdline::novpid    },
};

char *Cmdline::get_arg (char **line)
{
    for (; **line == ' '; ++*line) ;
  200c30:	48 8b 17             	mov    (%rdi),%rdx
  200c33:	8a 0a                	mov    (%rdx),%cl
  200c35:	80 f9 20             	cmp    $0x20,%cl
  200c38:	75 08                	jne    200c42 <_ZN7Cmdline7get_argEPPc+0x12>
  200c3a:	48 ff c2             	inc    %rdx
  200c3d:	48 89 17             	mov    %rdx,(%rdi)
  200c40:	eb ee                	jmp    200c30 <_ZN7Cmdline7get_argEPPc>

    if (!**line)
        return nullptr;
  200c42:	31 c0                	xor    %eax,%eax

char *Cmdline::get_arg (char **line)
{
    for (; **line == ' '; ++*line) ;

    if (!**line)
  200c44:	84 c9                	test   %cl,%cl
  200c46:	75 0b                	jne    200c53 <_ZN7Cmdline7get_argEPPc+0x23>
  200c48:	c3                   	retq   
        return nullptr;

    char *arg = *line;

    for (; **line != ' '; ++*line)
        if (!**line)
  200c49:	84 c9                	test   %cl,%cl
  200c4b:	74 1a                	je     200c67 <_ZN7Cmdline7get_argEPPc+0x37>
    if (!**line)
        return nullptr;

    char *arg = *line;

    for (; **line != ' '; ++*line)
  200c4d:	48 ff c0             	inc    %rax
  200c50:	48 89 07             	mov    %rax,(%rdi)
  200c53:	48 8b 07             	mov    (%rdi),%rax
  200c56:	8a 08                	mov    (%rax),%cl
  200c58:	80 f9 20             	cmp    $0x20,%cl
  200c5b:	75 ec                	jne    200c49 <_ZN7Cmdline7get_argEPPc+0x19>
        if (!**line)
            return arg;

    *(*line)++ = 0;
  200c5d:	48 8d 48 01          	lea    0x1(%rax),%rcx
  200c61:	48 89 0f             	mov    %rcx,(%rdi)
  200c64:	c6 00 00             	movb   $0x0,(%rax)
    { "novpid",     &Cmdline::novpid    },
};

char *Cmdline::get_arg (char **line)
{
    for (; **line == ' '; ++*line) ;
  200c67:	48 89 d0             	mov    %rdx,%rax
            return arg;

    *(*line)++ = 0;

    return arg;
}
  200c6a:	c3                   	retq   
  200c6b:	90                   	nop

0000000000200c6c <_ZN7Cmdline4initEm>:

void Cmdline::init (mword addr)
{
  200c6c:	48 83 ec 18          	sub    $0x18,%rsp
  200c70:	48 89 fe             	mov    %rdi,%rsi
    char *arg, *line = static_cast<char *>(Hpt::remap (Pd::kern.quota, addr));
  200c73:	48 c7 c7 a8 3f 16 81 	mov    $0xffffffff81163fa8,%rdi
  200c7a:	e8 93 74 e0 80       	callq  ffffffff81008112 <_ZN3Hpt5remapER5Quotam>
  200c7f:	48 89 44 24 08       	mov    %rax,0x8(%rsp)

    while ((arg = get_arg (&line)))
  200c84:	48 8d 7c 24 08       	lea    0x8(%rsp),%rdi
  200c89:	e8 a2 ff ff ff       	callq  200c30 <_ZN7Cmdline7get_argEPPc>
  200c8e:	48 85 c0             	test   %rax,%rax
  200c91:	74 3f                	je     200cd2 <_ZN7Cmdline4initEm+0x66>
  200c93:	31 d2                	xor    %edx,%edx
        for (unsigned i = 0; i < sizeof map / sizeof *map; i++)
            if (!strcmp (map[i].arg, arg))
  200c95:	48 8b ba c0 1d 20 00 	mov    0x201dc0(%rdx),%rdi
  200c9c:	48 89 c1             	mov    %rax,%rcx
    return d;
}

extern "C" NONNULL
inline int strcmp(char const *s1, char const *s2) {
    while (*s1 && *s1 == *s2)
  200c9f:	40 8a 37             	mov    (%rdi),%sil
  200ca2:	40 84 f6             	test   %sil,%sil
  200ca5:	74 0d                	je     200cb4 <_ZN7Cmdline4initEm+0x48>
  200ca7:	40 3a 31             	cmp    (%rcx),%sil
  200caa:	75 08                	jne    200cb4 <_ZN7Cmdline4initEm+0x48>
        s1++, s2++;
  200cac:	48 ff c7             	inc    %rdi
  200caf:	48 ff c1             	inc    %rcx
  200cb2:	eb eb                	jmp    200c9f <_ZN7Cmdline4initEm+0x33>
  200cb4:	40 3a 31             	cmp    (%rcx),%sil
  200cb7:	75 0a                	jne    200cc3 <_ZN7Cmdline4initEm+0x57>
                *map[i].ptr = true;
  200cb9:	48 8b 8a c8 1d 20 00 	mov    0x201dc8(%rdx),%rcx
  200cc0:	c6 01 01             	movb   $0x1,(%rcx)
  200cc3:	48 83 c2 10          	add    $0x10,%rdx
void Cmdline::init (mword addr)
{
    char *arg, *line = static_cast<char *>(Hpt::remap (Pd::kern.quota, addr));

    while ((arg = get_arg (&line)))
        for (unsigned i = 0; i < sizeof map / sizeof *map; i++)
  200cc7:	48 81 fa 90 00 00 00 	cmp    $0x90,%rdx
  200cce:	75 c5                	jne    200c95 <_ZN7Cmdline4initEm+0x29>
  200cd0:	eb b2                	jmp    200c84 <_ZN7Cmdline4initEm+0x18>
            if (!strcmp (map[i].arg, arg))
                *map[i].ptr = true;
}
  200cd2:	48 83 c4 18          	add    $0x18,%rsp
  200cd6:	c3                   	retq   
  200cd7:	90                   	nop

0000000000200cd8 <_ZN14Console_serialC1Ev>:
#include "x86.hpp"
#include "pd.hpp"

INIT_PRIORITY (PRIO_CONSOLE) Console_serial Console_serial::con;

Console_serial::Console_serial()
  200cd8:	48 c7 07 d0 d7 01 81 	movq   $0xffffffff8101d7d0,(%rdi)
{
    if (!Cmdline::serial)
  200cdf:	80 3d b8 10 e2 80 00 	cmpb   $0x0,-0x7f1def48(%rip)        # ffffffff81021d9e <_ZN7Cmdline6serialE>
  200ce6:	74 75                	je     200d5d <_ZN14Console_serialC1Ev+0x85>
#include "x86.hpp"
#include "pd.hpp"

INIT_PRIORITY (PRIO_CONSOLE) Console_serial Console_serial::con;

Console_serial::Console_serial()
  200ce8:	53                   	push   %rbx
{
    if (!Cmdline::serial)
        return;

    char *mem = static_cast<char *>(Hpt::remap (Pd::kern.quota, 0));
  200ce9:	31 f6                	xor    %esi,%esi
  200ceb:	48 89 fb             	mov    %rdi,%rbx
  200cee:	48 c7 c7 a8 3f 16 81 	mov    $0xffffffff81163fa8,%rdi
  200cf5:	e8 18 74 e0 80       	callq  ffffffff81008112 <_ZN3Hpt5remapER5Quotam>
    if (!(base = *reinterpret_cast<uint16 *>(mem + 0x400)) &&
  200cfa:	0f b7 90 00 04 00 00 	movzwl 0x400(%rax),%edx
  200d01:	85 d2                	test   %edx,%edx
  200d03:	89 53 10             	mov    %edx,0x10(%rbx)
  200d06:	75 0e                	jne    200d16 <_ZN14Console_serialC1Ev+0x3e>
        !(base = *reinterpret_cast<uint16 *>(mem + 0x402)))
  200d08:	0f b7 80 02 04 00 00 	movzwl 0x402(%rax),%eax
{
    if (!Cmdline::serial)
        return;

    char *mem = static_cast<char *>(Hpt::remap (Pd::kern.quota, 0));
    if (!(base = *reinterpret_cast<uint16 *>(mem + 0x400)) &&
  200d0f:	85 c0                	test   %eax,%eax
  200d11:	89 43 10             	mov    %eax,0x10(%rbx)
  200d14:	74 46                	je     200d5c <_ZN14Console_serialC1Ev+0x84>
  200d16:	8b 4b 10             	mov    0x10(%rbx),%ecx
  200d19:	b0 80                	mov    $0x80,%al

        ALWAYS_INLINE
        inline unsigned in (Register r) { return Io::in<uint8>(base + r); }

        ALWAYS_INLINE
        inline void out (Register r, unsigned v) { Io::out (base + r, static_cast<uint8>(v)); }
  200d1b:	44 8d 49 03          	lea    0x3(%rcx),%r9d
  200d1f:	44 89 ca             	mov    %r9d,%edx
  200d22:	ee                   	out    %al,(%dx)
  200d23:	b0 01                	mov    $0x1,%al
  200d25:	89 ca                	mov    %ecx,%edx
  200d27:	ee                   	out    %al,(%dx)
  200d28:	44 8d 41 01          	lea    0x1(%rcx),%r8d
  200d2c:	31 ff                	xor    %edi,%edi
  200d2e:	40 88 f8             	mov    %dil,%al
  200d31:	44 89 c2             	mov    %r8d,%edx
  200d34:	ee                   	out    %al,(%dx)
  200d35:	40 b6 03             	mov    $0x3,%sil
  200d38:	44 89 ca             	mov    %r9d,%edx
  200d3b:	40 88 f0             	mov    %sil,%al
  200d3e:	ee                   	out    %al,(%dx)
  200d3f:	40 88 f8             	mov    %dil,%al
  200d42:	44 89 c2             	mov    %r8d,%edx
  200d45:	ee                   	out    %al,(%dx)
  200d46:	b0 07                	mov    $0x7,%al
  200d48:	8d 51 02             	lea    0x2(%rcx),%edx
  200d4b:	ee                   	out    %al,(%dx)
  200d4c:	8d 51 04             	lea    0x4(%rcx),%edx
  200d4f:	40 88 f0             	mov    %sil,%al
  200d52:	ee                   	out    %al,(%dx)
    out (LCR, 3);
    out (IER, 0);
    out (FCR, 7);
    out (MCR, 3);

    enable();
  200d53:	48 89 df             	mov    %rbx,%rdi
}
  200d56:	5b                   	pop    %rbx
    out (LCR, 3);
    out (IER, 0);
    out (FCR, 7);
    out (MCR, 3);

    enable();
  200d57:	e9 ae 14 e0 80       	jmpq   ffffffff8100220a <_ZN7Console6enableEv>
}
  200d5c:	5b                   	pop    %rbx
  200d5d:	c3                   	retq   

0000000000200d5e <_ZN11Console_vgaC1Ev>:
#include "console_vga.hpp"
#include "pd.hpp"

INIT_PRIORITY (PRIO_CONSOLE) Console_vga Console_vga::con;

Console_vga::Console_vga() : num (25), row (0), col (0)
  200d5e:	48 c7 07 00 d8 01 81 	movq   $0xffffffff8101d800,(%rdi)
{
    if (Cmdline::novga)
  200d65:	80 3d 2d 10 e2 80 00 	cmpb   $0x0,-0x7f1defd3(%rip)        # ffffffff81021d99 <_ZN7Cmdline5novgaE>
#include "console_vga.hpp"
#include "pd.hpp"

INIT_PRIORITY (PRIO_CONSOLE) Console_vga Console_vga::con;

Console_vga::Console_vga() : num (25), row (0), col (0)
  200d6c:	c7 47 10 19 00 00 00 	movl   $0x19,0x10(%rdi)
  200d73:	c7 47 14 00 00 00 00 	movl   $0x0,0x14(%rdi)
  200d7a:	c7 47 18 00 00 00 00 	movl   $0x0,0x18(%rdi)
{
    if (Cmdline::novga)
  200d81:	75 59                	jne    200ddc <_ZN11Console_vgaC1Ev+0x7e>
#include "console_vga.hpp"
#include "pd.hpp"

INIT_PRIORITY (PRIO_CONSOLE) Console_vga Console_vga::con;

Console_vga::Console_vga() : num (25), row (0), col (0)
  200d83:	53                   	push   %rbx
        }

        ALWAYS_INLINE
        inline void insert (Quota &quota, mword virt, unsigned o, mword attr, Paddr phys)
        {
            hpt.update (quota, virt, o, phys, attr);
  200d84:	6a 00                	pushq  $0x0
  200d86:	48 89 fb             	mov    %rdi,%rbx
  200d89:	6a 00                	pushq  $0x0
  200d8b:	41 b9 13 01 00 00    	mov    $0x113,%r9d
  200d91:	41 b8 00 90 0b 00    	mov    $0xb9000,%r8d
  200d97:	31 c9                	xor    %ecx,%ecx
  200d99:	48 c7 c2 00 f0 df bf 	mov    $0xffffffffbfdff000,%rdx
  200da0:	48 c7 c6 a8 3f 16 81 	mov    $0xffffffff81163fa8,%rsi
  200da7:	48 c7 c7 40 3f 16 81 	mov    $0xffffffff81163f40,%rdi
  200dae:	e8 63 1f e1 80       	callq  ffffffff81012d16 <_ZN3PteI3HptmLj4ELj9ELb0EE6updateER5QuotammmmNS1_4TypeEb>
  200db3:	be d4 03 00 00       	mov    $0x3d4,%esi
  200db8:	b0 0c                	mov    $0xc,%al
  200dba:	89 f2                	mov    %esi,%edx
  200dbc:	ee                   	out    %al,(%dx)
  200dbd:	b9 d5 03 00 00       	mov    $0x3d5,%ecx
  200dc2:	b0 08                	mov    $0x8,%al
  200dc4:	89 ca                	mov    %ecx,%edx
  200dc6:	ee                   	out    %al,(%dx)
  200dc7:	b0 0d                	mov    $0xd,%al
  200dc9:	89 f2                	mov    %esi,%edx
  200dcb:	ee                   	out    %al,(%dx)
  200dcc:	31 c0                	xor    %eax,%eax
  200dce:	89 ca                	mov    %ecx,%edx
  200dd0:	ee                   	out    %al,(%dx)

    Pd::kern.Space_mem::insert (Pd::kern.quota, HV_GLOBAL_FBUF, 0, Hpt::HPT_NX | Hpt::HPT_G | Hpt::HPT_UC | Hpt::HPT_W | Hpt::HPT_P, 0xb9000);

    set_page (1);

    enable();
  200dd1:	58                   	pop    %rax
  200dd2:	48 89 df             	mov    %rbx,%rdi
  200dd5:	5a                   	pop    %rdx
}
  200dd6:	5b                   	pop    %rbx

    Pd::kern.Space_mem::insert (Pd::kern.quota, HV_GLOBAL_FBUF, 0, Hpt::HPT_NX | Hpt::HPT_G | Hpt::HPT_UC | Hpt::HPT_W | Hpt::HPT_P, 0xb9000);

    set_page (1);

    enable();
  200dd7:	e9 2e 14 e0 80       	jmpq   ffffffff8100220a <_ZN7Console6enableEv>
  200ddc:	c3                   	retq   
  200ddd:	90                   	nop

0000000000200dde <_ZN11Console_vga5setupEv>:
}

void Console_vga::setup()
{
    if (Cmdline::novga || !Cmdline::spinner)
  200dde:	80 3d b4 0f e2 80 00 	cmpb   $0x0,-0x7f1df04c(%rip)        # ffffffff81021d99 <_ZN7Cmdline5novgaE>
  200de5:	0f 85 c0 00 00 00    	jne    200eab <_ZN11Console_vga5setupEv+0xcd>

    enable();
}

void Console_vga::setup()
{
  200deb:	41 55                	push   %r13
  200ded:	41 54                	push   %r12
  200def:	45 31 ed             	xor    %r13d,%r13d
  200df2:	55                   	push   %rbp
  200df3:	53                   	push   %rbx
  200df4:	49 89 fc             	mov    %rdi,%r12
  200df7:	52                   	push   %rdx
    if (Cmdline::novga || !Cmdline::spinner)
  200df8:	80 3d 9e 0f e2 80 00 	cmpb   $0x0,-0x7f1df062(%rip)        # ffffffff81021d9d <_ZN7Cmdline7spinnerE>

template <typename T>
ALWAYS_INLINE
static inline T min (T v1, T v2)
{
    return v1 < v2 ? v1 : v2;
  200dff:	bd 0c 00 00 00       	mov    $0xc,%ebp
  200e04:	0f 84 9a 00 00 00    	je     200ea4 <_ZN11Console_vga5setupEv+0xc6>
        return;

    for (unsigned c = 0; c < min (Cpu::online, 12U); c++) {
  200e0a:	8b 05 30 12 f6 80    	mov    -0x7f09edd0(%rip),%eax        # ffffffff81162040 <_ZN3Cpu6onlineE>
  200e10:	83 f8 0c             	cmp    $0xc,%eax
  200e13:	0f 43 c5             	cmovae %ebp,%eax
  200e16:	41 39 c5             	cmp    %eax,%r13d
  200e19:	0f 83 85 00 00 00    	jae    200ea4 <_ZN11Console_vga5setupEv+0xc6>

        if (row == --num)
  200e1f:	41 8b 44 24 10       	mov    0x10(%r12),%eax
  200e24:	41 8b 5c 24 14       	mov    0x14(%r12),%ebx
  200e29:	8d 50 ff             	lea    -0x1(%rax),%edx
  200e2c:	39 d3                	cmp    %edx,%ebx
  200e2e:	41 89 54 24 10       	mov    %edx,0x10(%r12)
  200e33:	75 34                	jne    200e69 <_ZN11Console_vga5setupEv+0x8b>
        }

        ALWAYS_INLINE
        inline void clear_row (unsigned r)
        {
            memcpy (reinterpret_cast<void *>(HV_GLOBAL_FBUF), reinterpret_cast<void *>(HV_GLOBAL_FBUF + 160), 160 * r);
  200e35:	69 db a0 00 00 00    	imul   $0xa0,%ebx,%ebx
            clear_row (row--);
  200e3b:	83 e8 02             	sub    $0x2,%eax
  200e3e:	48 c7 c6 a0 f0 df bf 	mov    $0xffffffffbfdff0a0,%rsi
  200e45:	41 89 44 24 14       	mov    %eax,0x14(%r12)
  200e4a:	48 c7 c7 00 f0 df bf 	mov    $0xffffffffbfdff000,%rdi
  200e51:	48 89 da             	mov    %rbx,%rdx
  200e54:	e8 09 60 e1 80       	callq  ffffffff81016e62 <memcpy>
            memset (reinterpret_cast<void *>(HV_GLOBAL_FBUF + 160 * r), 0, 160);
  200e59:	48 8d bb 00 f0 df bf 	lea    -0x40201000(%rbx),%rdi
inline void *memset(void *d, int c, size_t n) {
    mword dummy;
    asm volatile ("rep; stosb"
                : "=D" (dummy), "+c" (n)
                : "0" (d), "a" (c)
                : "memory");
  200e60:	b9 a0 00 00 00       	mov    $0xa0,%ecx
  200e65:	31 c0                	xor    %eax,%eax
  200e67:	f3 aa                	rep stos %al,%es:(%rdi)

    enable();
}

void Console_vga::setup()
{
  200e69:	ba 10 00 00 00       	mov    $0x10,%edx

        if (row == --num)
            clear_row (row--);

        for (unsigned i = SPN_GSI; i < 80; i++)
            put (num, i, COLOR_LIGHT_BLACK, ((i - SPN_GSI) & 0xf)["0123456789ABCDEF"]);
  200e6e:	41 8b 44 24 10       	mov    0x10(%r12),%eax
  200e73:	48 89 d1             	mov    %rdx,%rcx
  200e76:	83 e1 0f             	and    $0xf,%ecx
        inline unsigned spinner (unsigned id) { return id < 25 - num ? 24 - id : 0; }

        ALWAYS_INLINE
        inline void put (unsigned long r, unsigned long c, Color color, int x)
        {
            *reinterpret_cast<unsigned short volatile *>(HV_GLOBAL_FBUF + r * 160 + c * 2) = static_cast<unsigned short>(color << 8 | x);
  200e79:	66 0f be 89 d8 d7 01 	movsbw -0x7efe2828(%rcx),%cx
  200e80:	81 
  200e81:	48 6b c0 50          	imul   $0x50,%rax,%rax
  200e85:	80 cd 08             	or     $0x8,%ch
  200e88:	48 01 d0             	add    %rdx,%rax
  200e8b:	48 ff c2             	inc    %rdx
    for (unsigned c = 0; c < min (Cpu::online, 12U); c++) {

        if (row == --num)
            clear_row (row--);

        for (unsigned i = SPN_GSI; i < 80; i++)
  200e8e:	48 83 fa 50          	cmp    $0x50,%rdx
  200e92:	66 89 8c 00 00 f0 df 	mov    %cx,-0x40201000(%rax,%rax,1)
  200e99:	bf 
  200e9a:	75 d2                	jne    200e6e <_ZN11Console_vga5setupEv+0x90>
void Console_vga::setup()
{
    if (Cmdline::novga || !Cmdline::spinner)
        return;

    for (unsigned c = 0; c < min (Cpu::online, 12U); c++) {
  200e9c:	41 ff c5             	inc    %r13d
  200e9f:	e9 66 ff ff ff       	jmpq   200e0a <_ZN11Console_vga5setupEv+0x2c>
            clear_row (row--);

        for (unsigned i = SPN_GSI; i < 80; i++)
            put (num, i, COLOR_LIGHT_BLACK, ((i - SPN_GSI) & 0xf)["0123456789ABCDEF"]);
    }
}
  200ea4:	58                   	pop    %rax
  200ea5:	5b                   	pop    %rbx
  200ea6:	5d                   	pop    %rbp
  200ea7:	41 5c                	pop    %r12
  200ea9:	41 5d                	pop    %r13
  200eab:	c3                   	retq   

0000000000200eac <_ZN4DmarC1Em>:
Dmar *      Dmar::list;
Dmar_ctx *  Dmar::ctx = new (Pd::kern.quota) Dmar_ctx;
Dmar_irt *  Dmar::irt = new (Pd::kern.quota) Dmar_irt;
uint32      Dmar::gcmd = GCMD_TE;

Dmar::Dmar (Paddr p) : List<Dmar> (list), reg_base ((hwdev_addr -= PAGE_SIZE) | (p & PAGE_MASK)), invq (static_cast<Dmar_qi *>(Buddy::allocator.alloc (ord, Pd::kern.quota, Buddy::FILL_0))), invq_idx (0)
  200eac:	55                   	push   %rbp
  200ead:	53                   	push   %rbx
  200eae:	48 89 f5             	mov    %rsi,%rbp
  200eb1:	48 89 fb             	mov    %rdi,%rbx
  200eb4:	48 c7 c2 60 20 16 81 	mov    $0xffffffff81162060,%rdx
  200ebb:	48 83 ec 18          	sub    $0x18,%rsp
    protected:
        T *next;

    public:
        ALWAYS_INLINE
        explicit inline List (T *&list) : next (nullptr)
  200ebf:	48 c7 07 00 00 00 00 	movq   $0x0,(%rdi)
        {
            T **ptr; for (ptr = &list; *ptr; ptr = &(*ptr)->next) ; *ptr = static_cast<T *>(this);
  200ec6:	48 8b 05 93 11 f6 80 	mov    -0x7f09ee6d(%rip),%rax        # ffffffff81162060 <_ZN4Dmar4listE>
  200ecd:	48 85 c0             	test   %rax,%rax
  200ed0:	74 08                	je     200eda <_ZN4DmarC1Em+0x2e>
  200ed2:	48 89 c2             	mov    %rax,%rdx
  200ed5:	48 8b 00             	mov    (%rax),%rax
  200ed8:	eb f3                	jmp    200ecd <_ZN4DmarC1Em+0x21>
  200eda:	48 89 1a             	mov    %rbx,(%rdx)
  200edd:	48 8b 05 ec 0c e2 80 	mov    -0x7f1df314(%rip),%rax        # ffffffff81021bd0 <hwdev_addr>
  200ee4:	48 89 ea             	mov    %rbp,%rdx
  200ee7:	81 e2 ff 0f 00 00    	and    $0xfff,%edx
  200eed:	b9 01 00 00 00       	mov    $0x1,%ecx
  200ef2:	31 f6                	xor    %esi,%esi
  200ef4:	48 c7 c7 30 1d 02 81 	mov    $0xffffffff81021d30,%rdi
  200efb:	48 2d 00 10 00 00    	sub    $0x1000,%rax
  200f01:	48 89 05 c8 0c e2 80 	mov    %rax,-0x7f1df338(%rip)        # ffffffff81021bd0 <hwdev_addr>
  200f08:	48 09 d0             	or     %rdx,%rax
  200f0b:	48 c7 c2 a8 3f 16 81 	mov    $0xffffffff81163fa8,%rdx
  200f12:	48 89 43 08          	mov    %rax,0x8(%rbx)
  200f16:	e8 d7 09 e0 80       	callq  ffffffff810018f2 <_ZN5Buddy5allocEtR5QuotaNS_4FillE>
{
    Pd::kern.Space_mem::delreg (Pd::kern.quota, p & ~PAGE_MASK);
  200f1b:	49 89 e8             	mov    %rbp,%r8
Dmar *      Dmar::list;
Dmar_ctx *  Dmar::ctx = new (Pd::kern.quota) Dmar_ctx;
Dmar_irt *  Dmar::irt = new (Pd::kern.quota) Dmar_irt;
uint32      Dmar::gcmd = GCMD_TE;

Dmar::Dmar (Paddr p) : List<Dmar> (list), reg_base ((hwdev_addr -= PAGE_SIZE) | (p & PAGE_MASK)), invq (static_cast<Dmar_qi *>(Buddy::allocator.alloc (ord, Pd::kern.quota, Buddy::FILL_0))), invq_idx (0)
  200f1e:	48 89 43 20          	mov    %rax,0x20(%rbx)
{
    Pd::kern.Space_mem::delreg (Pd::kern.quota, p & ~PAGE_MASK);
  200f22:	48 c7 c6 a8 3f 16 81 	mov    $0xffffffff81163fa8,%rsi
  200f29:	49 81 e0 00 f0 ff ff 	and    $0xfffffffffffff000,%r8
  200f30:	48 c7 c7 30 3d 16 81 	mov    $0xffffffff81163d30,%rdi
Dmar *      Dmar::list;
Dmar_ctx *  Dmar::ctx = new (Pd::kern.quota) Dmar_ctx;
Dmar_irt *  Dmar::irt = new (Pd::kern.quota) Dmar_irt;
uint32      Dmar::gcmd = GCMD_TE;

Dmar::Dmar (Paddr p) : List<Dmar> (list), reg_base ((hwdev_addr -= PAGE_SIZE) | (p & PAGE_MASK)), invq (static_cast<Dmar_qi *>(Buddy::allocator.alloc (ord, Pd::kern.quota, Buddy::FILL_0))), invq_idx (0)
  200f37:	c7 43 28 00 00 00 00 	movl   $0x0,0x28(%rbx)
{
    Pd::kern.Space_mem::delreg (Pd::kern.quota, p & ~PAGE_MASK);
  200f3e:	4c 89 c2             	mov    %r8,%rdx
  200f41:	4c 89 44 24 08       	mov    %r8,0x8(%rsp)
  200f46:	e8 43 20 e0 80       	callq  ffffffff81002f8e <_ZN5Space6delregER5Quotam>
  200f4b:	6a 00                	pushq  $0x0
  200f4d:	48 8b 53 08          	mov    0x8(%rbx),%rdx
  200f51:	31 c9                	xor    %ecx,%ecx
  200f53:	6a 00                	pushq  $0x0
  200f55:	4c 8b 44 24 18       	mov    0x18(%rsp),%r8
  200f5a:	48 c7 c6 a8 3f 16 81 	mov    $0xffffffff81163fa8,%rsi
  200f61:	41 b9 13 01 00 00    	mov    $0x113,%r9d
  200f67:	48 c7 c7 40 3f 16 81 	mov    $0xffffffff81163f40,%rdi
  200f6e:	e8 a3 1d e1 80       	callq  ffffffff81012d16 <_ZN3PteI3HptmLj4ELj9ELb0EE6updateER5QuotammmmNS1_4TypeEb>
  200f73:	48 8b 4b 08          	mov    0x8(%rbx),%rcx

        template <typename T>
        ALWAYS_INLINE
        inline T read (Reg reg)
        {
            return *reinterpret_cast<T volatile *>(reg_base + reg);
  200f77:	48 8b 51 08          	mov    0x8(%rcx),%rdx
    Pd::kern.Space_mem::insert (Pd::kern.quota, reg_base, 0, Hpt::HPT_NX | Hpt::HPT_G | Hpt::HPT_UC | Hpt::HPT_W | Hpt::HPT_P, p & ~PAGE_MASK);

    cap  = read<uint64>(REG_CAP);
  200f7b:	48 89 53 10          	mov    %rdx,0x10(%rbx)
  200f7f:	48 8b 41 10          	mov    0x10(%rcx),%rax
    ecap = read<uint64>(REG_ECAP);

    Dpt::ord = min (Dpt::ord, static_cast<mword>(bit_scan_reverse (static_cast<mword>(cap >> 34) & 0xf) + 2) * Dpt::bpl() - 1);
  200f83:	48 c1 ea 22          	shr    $0x22,%rdx
{
    Pd::kern.Space_mem::delreg (Pd::kern.quota, p & ~PAGE_MASK);
    Pd::kern.Space_mem::insert (Pd::kern.quota, reg_base, 0, Hpt::HPT_NX | Hpt::HPT_G | Hpt::HPT_UC | Hpt::HPT_W | Hpt::HPT_P, p & ~PAGE_MASK);

    cap  = read<uint64>(REG_CAP);
    ecap = read<uint64>(REG_ECAP);
  200f87:	48 89 43 18          	mov    %rax,0x18(%rbx)
#include "util.hpp"

ALWAYS_INLINE
inline long int bit_scan_reverse (mword val)
{
    if (EXPECT_FALSE (!val))
  200f8b:	58                   	pop    %rax
        return -1;
  200f8c:	48 83 c8 ff          	or     $0xffffffffffffffff,%rax
#include "util.hpp"

ALWAYS_INLINE
inline long int bit_scan_reverse (mword val)
{
    if (EXPECT_FALSE (!val))
  200f90:	83 e2 0f             	and    $0xf,%edx
  200f93:	5e                   	pop    %rsi
  200f94:	74 04                	je     200f9a <_ZN4DmarC1Em+0xee>
        return -1;

    asm volatile ("bsr %1, %0" : "=r" (val) : "rm" (val));

    return val;
  200f96:	48 0f bd c2          	bsr    %rdx,%rax

    Dpt::ord = min (Dpt::ord, static_cast<mword>(bit_scan_reverse (static_cast<mword>(cap >> 34) & 0xf) + 2) * Dpt::bpl() - 1);
  200f9a:	48 83 c0 02          	add    $0x2,%rax
  200f9e:	48 8b 15 43 0c e2 80 	mov    -0x7f1df3bd(%rip),%rdx        # ffffffff81021be8 <_ZN3Dpt3ordE>
  200fa5:	48 8d 04 c0          	lea    (%rax,%rax,8),%rax
  200fa9:	48 ff c8             	dec    %rax
  200fac:	48 39 d0             	cmp    %rdx,%rax
  200faf:	48 0f 47 c2          	cmova  %rdx,%rax
  200fb3:	48 89 05 2e 0c e2 80 	mov    %rax,-0x7f1df3d2(%rip)        # ffffffff81021be8 <_ZN3Dpt3ordE>

    write<uint32>(REG_FEADDR, 0xfee00000 | Cpu::apic_id[0] << 12);
  200fba:	0f b6 05 ff 0f f6 80 	movzbl -0x7f09f001(%rip),%eax        # ffffffff81161fc0 <_ZN3Cpu7apic_idE>
  200fc1:	c1 e0 0c             	shl    $0xc,%eax
  200fc4:	0d 00 00 e0 fe       	or     $0xfee00000,%eax

        template <typename T>
        ALWAYS_INLINE
        inline void write (Reg reg, T val)
        {
            *reinterpret_cast<T volatile *>(reg_base + reg) = val;
  200fc9:	89 41 40             	mov    %eax,0x40(%rcx)
  200fcc:	48 8b 43 08          	mov    0x8(%rbx),%rax
  200fd0:	c7 40 3c a6 00 00 00 	movl   $0xa6,0x3c(%rax)
  200fd7:	48 8b 43 08          	mov    0x8(%rbx),%rax
  200fdb:	c7 40 38 00 00 00 00 	movl   $0x0,0x38(%rax)
        }

        ALWAYS_INLINE
        inline mword virt_to_phys (mword virt)
        {
            return virt - reinterpret_cast<mword>(&OFFSET);
  200fe2:	48 8b 05 6f 10 f6 80 	mov    -0x7f09ef91(%rip),%rax        # ffffffff81162058 <_ZN4Dmar3ctxE>
  200fe9:	48 8b 53 08          	mov    0x8(%rbx),%rdx
  200fed:	48 2d 00 00 c0 80    	sub    $0xffffffff80c00000,%rax
  200ff3:	48 89 42 20          	mov    %rax,0x20(%rdx)
  200ff7:	48 8b 43 08          	mov    0x8(%rbx),%rax
  200ffb:	c7 40 18 00 00 00 40 	movl   $0x40000000,0x18(%rax)
  201002:	48 8b 53 08          	mov    0x8(%rbx),%rdx

        template <typename T>
        ALWAYS_INLINE
        inline T read (Reg reg)
        {
            return *reinterpret_cast<T volatile *>(reg_base + reg);
  201006:	8b 42 1c             	mov    0x1c(%rdx),%eax

        ALWAYS_INLINE
        inline void command (uint32 val)
        {
            write<uint32>(REG_GCMD, val);
            while ((read<uint32>(REG_GSTS) & val) != val)
  201009:	a9 00 00 00 40       	test   $0x40000000,%eax
  20100e:	75 04                	jne    201014 <_ZN4DmarC1Em+0x168>
  201010:	f3 90                	pause  
  201012:	eb ee                	jmp    201002 <_ZN4DmarC1Em+0x156>
    write<uint32>(REG_FECTL,  0);

    write<uint64>(REG_RTADDR, Buddy::ptr_to_phys (ctx));
    command (GCMD_SRTP);

    if (ir()) {
  201014:	f6 43 18 08          	testb  $0x8,0x18(%rbx)
  201018:	74 3f                	je     201059 <_ZN4DmarC1Em+0x1ad>
  20101a:	48 8b 05 2f 10 f6 80 	mov    -0x7f09efd1(%rip),%rax        # ffffffff81162050 <_ZN4Dmar3irtE>
  201021:	48 2d 00 00 c0 80    	sub    $0xffffffff80c00000,%rax
        write<uint64>(REG_IRTA, Buddy::ptr_to_phys (irt) | 7);
  201027:	48 83 c8 07          	or     $0x7,%rax

        template <typename T>
        ALWAYS_INLINE
        inline void write (Reg reg, T val)
        {
            *reinterpret_cast<T volatile *>(reg_base + reg) = val;
  20102b:	48 89 82 b8 00 00 00 	mov    %rax,0xb8(%rdx)
  201032:	48 8b 43 08          	mov    0x8(%rbx),%rax
  201036:	c7 40 18 00 00 00 01 	movl   $0x1000000,0x18(%rax)

        template <typename T>
        ALWAYS_INLINE
        inline T read (Reg reg)
        {
            return *reinterpret_cast<T volatile *>(reg_base + reg);
  20103d:	48 8b 43 08          	mov    0x8(%rbx),%rax
  201041:	8b 40 1c             	mov    0x1c(%rax),%eax

        ALWAYS_INLINE
        inline void command (uint32 val)
        {
            write<uint32>(REG_GCMD, val);
            while ((read<uint32>(REG_GSTS) & val) != val)
  201044:	a9 00 00 00 01       	test   $0x1000000,%eax
  201049:	75 04                	jne    20104f <_ZN4DmarC1Em+0x1a3>
  20104b:	f3 90                	pause  
  20104d:	eb ee                	jmp    20103d <_ZN4DmarC1Em+0x191>
        command (GCMD_SIRTP);
        gcmd |= GCMD_IRE;
  20104f:	81 0d 1f 06 e2 80 00 	orl    $0x2000000,-0x7f1df9e1(%rip)        # ffffffff81021678 <CTORS_E>
  201056:	00 00 02 
    }

    if (qi()) {
  201059:	f6 43 18 02          	testb  $0x2,0x18(%rbx)
  20105d:	74 4b                	je     2010aa <_ZN4DmarC1Em+0x1fe>

        template <typename T>
        ALWAYS_INLINE
        inline void write (Reg reg, T val)
        {
            *reinterpret_cast<T volatile *>(reg_base + reg) = val;
  20105f:	48 8b 43 08          	mov    0x8(%rbx),%rax
  201063:	48 c7 80 88 00 00 00 	movq   $0x0,0x88(%rax)
  20106a:	00 00 00 00 
  20106e:	48 8b 43 20          	mov    0x20(%rbx),%rax
  201072:	48 8b 53 08          	mov    0x8(%rbx),%rdx
  201076:	48 2d 00 00 c0 80    	sub    $0xffffffff80c00000,%rax
  20107c:	48 89 82 90 00 00 00 	mov    %rax,0x90(%rdx)
  201083:	48 8b 43 08          	mov    0x8(%rbx),%rax
  201087:	c7 40 18 00 00 00 04 	movl   $0x4000000,0x18(%rax)

        template <typename T>
        ALWAYS_INLINE
        inline T read (Reg reg)
        {
            return *reinterpret_cast<T volatile *>(reg_base + reg);
  20108e:	48 8b 43 08          	mov    0x8(%rbx),%rax
  201092:	8b 40 1c             	mov    0x1c(%rax),%eax

        ALWAYS_INLINE
        inline void command (uint32 val)
        {
            write<uint32>(REG_GCMD, val);
            while ((read<uint32>(REG_GSTS) & val) != val)
  201095:	a9 00 00 00 04       	test   $0x4000000,%eax
  20109a:	75 04                	jne    2010a0 <_ZN4DmarC1Em+0x1f4>
  20109c:	f3 90                	pause  
  20109e:	eb ee                	jmp    20108e <_ZN4DmarC1Em+0x1e2>
        write<uint64>(REG_IQT, 0);
        write<uint64>(REG_IQA, Buddy::ptr_to_phys (invq));
        command (GCMD_QIE);
        gcmd |= GCMD_QIE;
  2010a0:	81 0d ce 05 e2 80 00 	orl    $0x4000000,-0x7f1dfa32(%rip)        # ffffffff81021678 <CTORS_E>
  2010a7:	00 00 04 
    }
}
  2010aa:	48 83 c4 18          	add    $0x18,%rsp
  2010ae:	5b                   	pop    %rbx
  2010af:	5d                   	pop    %rbp
  2010b0:	c3                   	retq   
  2010b1:	90                   	nop

00000000002010b2 <_ZN3Gsi5setupEv>:

Gsi         Gsi::gsi_table[NUM_GSI];
unsigned    Gsi::irq_table[NUM_IRQ];

void Gsi::setup()
{
  2010b2:	41 54                	push   %r12
  2010b4:	55                   	push   %rbp
  2010b5:	48 c7 c5 40 21 16 81 	mov    $0xffffffff81162140,%rbp
  2010bc:	53                   	push   %rbx
  2010bd:	31 db                	xor    %ebx,%ebx

            call_rcu(true);
        }

        ALWAYS_INLINE
        static inline void *operator new (size_t, Quota &quota) { return cache.alloc(quota); }
  2010bf:	48 c7 c6 a8 3f 16 81 	mov    $0xffffffff81163fa8,%rsi
  2010c6:	48 c7 c7 80 40 16 81 	mov    $0xffffffff81164080,%rdi
  2010cd:	e8 5c 48 e1 80       	callq  ffffffff8101592e <_ZN10Slab_cache5allocER5Quota>
  2010d2:	48 8d 53 40          	lea    0x40(%rbx),%rdx
  2010d6:	49 89 c4             	mov    %rax,%r12
    for (unsigned gsi = 0; gsi < NUM_GSI; gsi++) {

        Space_obj::insert_root (Pd::kern.quota, Gsi::gsi_table[gsi].sm = new (Pd::kern.quota) Sm (&Pd::kern, NUM_CPU + gsi));
  2010d9:	45 31 c9             	xor    %r9d,%r9d
  2010dc:	45 31 c0             	xor    %r8d,%r8d
  2010df:	31 c9                	xor    %ecx,%ecx
  2010e1:	48 89 c7             	mov    %rax,%rdi
  2010e4:	48 c7 c6 a0 3c 16 81 	mov    $0xffffffff81163ca0,%rsi
  2010eb:	e8 72 4e e1 80       	callq  ffffffff81015f62 <_ZN2SmC1EP2PdmmPS_m>
  2010f0:	4c 89 65 00          	mov    %r12,0x0(%rbp)
  2010f4:	4c 89 e6             	mov    %r12,%rsi
  2010f7:	48 c7 c7 a8 3f 16 81 	mov    $0xffffffff81163fa8,%rdi
  2010fe:	e8 67 59 e1 80       	callq  ffffffff81016a6a <_ZN9Space_obj11insert_rootER5QuotaP7Kobject>
  201103:	8d 43 20             	lea    0x20(%rbx),%eax

        gsi_table[gsi].vec = static_cast<uint8>(VEC_GSI + gsi);

        if (gsi < NUM_IRQ) {
  201106:	48 83 fb 0f          	cmp    $0xf,%rbx
  20110a:	88 45 10             	mov    %al,0x10(%rbp)
  20110d:	89 d8                	mov    %ebx,%eax
  20110f:	77 14                	ja     201125 <_ZN3Gsi5setupEv+0x73>
            irq_table[gsi] = gsi;
            gsi_table[gsi].trg = 0;
  201111:	48 6b c0 18          	imul   $0x18,%rax,%rax
        Space_obj::insert_root (Pd::kern.quota, Gsi::gsi_table[gsi].sm = new (Pd::kern.quota) Sm (&Pd::kern, NUM_CPU + gsi));

        gsi_table[gsi].vec = static_cast<uint8>(VEC_GSI + gsi);

        if (gsi < NUM_IRQ) {
            irq_table[gsi] = gsi;
  201115:	89 1c 9d 00 21 16 81 	mov    %ebx,-0x7ee9df00(,%rbx,4)
            gsi_table[gsi].trg = 0;
            gsi_table[gsi].pol = 0;
  20111c:	80 a0 51 21 16 81 5f 	andb   $0x5f,-0x7ee9deaf(%rax)
  201123:	eb 0b                	jmp    201130 <_ZN3Gsi5setupEv+0x7e>
        } else {
            gsi_table[gsi].trg = 1;
  201125:	48 6b c0 18          	imul   $0x18,%rax,%rax
            gsi_table[gsi].pol = 1;
  201129:	80 88 51 21 16 81 a0 	orb    $0xa0,-0x7ee9deaf(%rax)
  201130:	48 ff c3             	inc    %rbx
  201133:	48 83 c5 18          	add    $0x18,%rbp
Gsi         Gsi::gsi_table[NUM_GSI];
unsigned    Gsi::irq_table[NUM_IRQ];

void Gsi::setup()
{
    for (unsigned gsi = 0; gsi < NUM_GSI; gsi++) {
  201137:	48 81 fb 80 00 00 00 	cmp    $0x80,%rbx
  20113e:	0f 85 7b ff ff ff    	jne    2010bf <_ZN3Gsi5setupEv+0xd>
        } else {
            gsi_table[gsi].trg = 1;
            gsi_table[gsi].pol = 1;
        }
    }
}
  201144:	5b                   	pop    %rbx
  201145:	5d                   	pop    %rbp
  201146:	41 5c                	pop    %r12
  201148:	c3                   	retq   
  201149:	90                   	nop

000000000020114a <_ZN3Hip7add_memERP7Hip_memmm>:

    h->length = static_cast<uint16>(reinterpret_cast<mword>(mem) - reinterpret_cast<mword>(h));
}

void Hip::add_mem (Hip_mem *&mem, mword addr, size_t len)
{
  20114a:	55                   	push   %rbp
  20114b:	53                   	push   %rbx
  20114c:	48 89 d5             	mov    %rdx,%rbp
  20114f:	51                   	push   %rcx
  201150:	48 89 fb             	mov    %rdi,%rbx
    char *mmap_addr = static_cast<char *>(Hpt::remap (Pd::kern.quota, addr));
  201153:	48 c7 c7 a8 3f 16 81 	mov    $0xffffffff81163fa8,%rdi
  20115a:	e8 b3 6f e0 80       	callq  ffffffff81008112 <_ZN3Hpt5remapER5Quotam>

    for (char *ptr = mmap_addr; ptr < mmap_addr + len; mem++) {
  20115f:	48 01 c5             	add    %rax,%rbp
  201162:	48 39 e8             	cmp    %rbp,%rax
  201165:	73 36                	jae    20119d <_ZN3Hip7add_memERP7Hip_memmm+0x53>

        Multiboot_mmap *map = reinterpret_cast<Multiboot_mmap *>(ptr);

        mem->addr = map->addr;
  201167:	48 8b 48 04          	mov    0x4(%rax),%rcx
  20116b:	48 8b 13             	mov    (%rbx),%rdx
  20116e:	48 89 0a             	mov    %rcx,(%rdx)
        mem->size = map->len;
  201171:	48 8b 48 0c          	mov    0xc(%rax),%rcx
  201175:	48 8b 13             	mov    (%rbx),%rdx
  201178:	48 89 4a 08          	mov    %rcx,0x8(%rdx)
        mem->type = map->type;
  20117c:	48 8b 13             	mov    (%rbx),%rdx
  20117f:	8b 48 14             	mov    0x14(%rax),%ecx
  201182:	89 4a 10             	mov    %ecx,0x10(%rdx)
        mem->aux  = 0;
  201185:	48 8b 13             	mov    (%rbx),%rdx
  201188:	c7 42 14 00 00 00 00 	movl   $0x0,0x14(%rdx)

        ptr += map->size + 4;
  20118f:	8b 10                	mov    (%rax),%edx

void Hip::add_mem (Hip_mem *&mem, mword addr, size_t len)
{
    char *mmap_addr = static_cast<char *>(Hpt::remap (Pd::kern.quota, addr));

    for (char *ptr = mmap_addr; ptr < mmap_addr + len; mem++) {
  201191:	48 83 03 18          	addq   $0x18,(%rbx)
        mem->addr = map->addr;
        mem->size = map->len;
        mem->type = map->type;
        mem->aux  = 0;

        ptr += map->size + 4;
  201195:	83 c2 04             	add    $0x4,%edx
  201198:	48 01 d0             	add    %rdx,%rax
  20119b:	eb c5                	jmp    201162 <_ZN3Hip7add_memERP7Hip_memmm+0x18>
    }
}
  20119d:	58                   	pop    %rax
  20119e:	5b                   	pop    %rbx
  20119f:	5d                   	pop    %rbp
  2011a0:	c3                   	retq   
  2011a1:	90                   	nop

00000000002011a2 <_ZN3Hip7add_modERP7Hip_memmm>:

void Hip::add_mod (Hip_mem *&mem, mword addr, size_t count)
{
  2011a2:	55                   	push   %rbp
  2011a3:	53                   	push   %rbx
  2011a4:	48 89 d5             	mov    %rdx,%rbp
  2011a7:	51                   	push   %rcx
  2011a8:	48 89 fb             	mov    %rdi,%rbx
    Multiboot_module *mod = static_cast<Multiboot_module *>(Hpt::remap (Pd::kern.quota, addr));
  2011ab:	48 c7 c7 a8 3f 16 81 	mov    $0xffffffff81163fa8,%rdi
  2011b2:	e8 5b 6f e0 80       	callq  ffffffff81008112 <_ZN3Hpt5remapER5Quotam>

    if (count) {
  2011b7:	48 85 ed             	test   %rbp,%rbp
  2011ba:	74 17                	je     2011d3 <_ZN3Hip7add_modERP7Hip_memmm+0x31>
        root_addr = mod->s_addr;
  2011bc:	8b 38                	mov    (%rax),%edi
  2011be:	48 89 3d 83 1b f6 80 	mov    %rdi,-0x7f09e47d(%rip)        # ffffffff81162d48 <_ZN3Hip9root_addrE>
        root_size = mod->e_addr - mod->s_addr;
  2011c5:	8b 48 04             	mov    0x4(%rax),%ecx
  2011c8:	2b 08                	sub    (%rax),%ecx
  2011ca:	89 cf                	mov    %ecx,%edi
  2011cc:	48 89 3d 6d 1b f6 80 	mov    %rdi,-0x7f09e493(%rip)        # ffffffff81162d40 <_ZN3Hip9root_sizeE>
        ptr += map->size + 4;
    }
}

void Hip::add_mod (Hip_mem *&mem, mword addr, size_t count)
{
  2011d3:	31 c9                	xor    %ecx,%ecx
    if (count) {
        root_addr = mod->s_addr;
        root_size = mod->e_addr - mod->s_addr;
    }

    for (unsigned i = 0; i < count; i++, mod++, mem++) {
  2011d5:	89 ca                	mov    %ecx,%edx
  2011d7:	48 39 ea             	cmp    %rbp,%rdx
  2011da:	73 36                	jae    201212 <_ZN3Hip7add_modERP7Hip_memmm+0x70>
        mem->addr = mod->s_addr;
  2011dc:	8b 38                	mov    (%rax),%edi
  2011de:	48 8b 13             	mov    (%rbx),%rdx
    if (count) {
        root_addr = mod->s_addr;
        root_size = mod->e_addr - mod->s_addr;
    }

    for (unsigned i = 0; i < count; i++, mod++, mem++) {
  2011e1:	ff c1                	inc    %ecx
  2011e3:	48 83 c0 10          	add    $0x10,%rax
        mem->addr = mod->s_addr;
  2011e7:	48 89 3a             	mov    %rdi,(%rdx)
        mem->size = mod->e_addr - mod->s_addr;
  2011ea:	8b 70 f4             	mov    -0xc(%rax),%esi
  2011ed:	2b 70 f0             	sub    -0x10(%rax),%esi
  2011f0:	48 8b 13             	mov    (%rbx),%rdx
  2011f3:	89 f7                	mov    %esi,%edi
  2011f5:	48 89 7a 08          	mov    %rdi,0x8(%rdx)
        mem->type = Hip_mem::MB_MODULE;
  2011f9:	48 8b 13             	mov    (%rbx),%rdx
  2011fc:	c7 42 10 fe ff ff ff 	movl   $0xfffffffe,0x10(%rdx)
        mem->aux  = mod->cmdline;
  201203:	8b 70 f8             	mov    -0x8(%rax),%esi
  201206:	48 8b 13             	mov    (%rbx),%rdx
  201209:	89 72 14             	mov    %esi,0x14(%rdx)
    if (count) {
        root_addr = mod->s_addr;
        root_size = mod->e_addr - mod->s_addr;
    }

    for (unsigned i = 0; i < count; i++, mod++, mem++) {
  20120c:	48 83 03 18          	addq   $0x18,(%rbx)
  201210:	eb c3                	jmp    2011d5 <_ZN3Hip7add_modERP7Hip_memmm+0x33>
        mem->addr = mod->s_addr;
        mem->size = mod->e_addr - mod->s_addr;
        mem->type = Hip_mem::MB_MODULE;
        mem->aux  = mod->cmdline;
    }
}
  201212:	58                   	pop    %rax
  201213:	5b                   	pop    %rbx
  201214:	5d                   	pop    %rbp
  201215:	c3                   	retq   

0000000000201216 <_ZN3Hip7add_mhvERP7Hip_mem>:

void Hip::add_mhv (Hip_mem *&mem)
{
    mem->addr = reinterpret_cast<mword>(&LINK_P);
  201216:	48 8b 07             	mov    (%rdi),%rax
  201219:	48 c7 00 00 00 40 00 	movq   $0x400000,(%rax)
    mem->size = reinterpret_cast<mword>(&LINK_E) - mem->addr;
  201220:	48 8b 17             	mov    (%rdi),%rdx
  201223:	48 c7 c0 00 00 80 08 	mov    $0x8800000,%rax
  20122a:	48 2b 02             	sub    (%rdx),%rax
  20122d:	48 89 42 08          	mov    %rax,0x8(%rdx)
    mem->type = Hip_mem::HYPERVISOR;
  201231:	48 8b 07             	mov    (%rdi),%rax
  201234:	c7 40 10 ff ff ff ff 	movl   $0xffffffff,0x10(%rax)
    mem++;
  20123b:	48 83 07 18          	addq   $0x18,(%rdi)
  20123f:	c3                   	retq   

0000000000201240 <_ZN3Hip5buildEm>:

mword Hip::root_addr;
mword Hip::root_size;

void Hip::build (mword addr)
{
  201240:	41 56                	push   %r14
  201242:	41 55                	push   %r13
  201244:	48 89 fe             	mov    %rdi,%rsi
  201247:	41 54                	push   %r12
  201249:	55                   	push   %rbp
    h->sel_exc    = NUM_EXC;
    h->sel_vmi    = NUM_VMI;
    h->cfg_page   = PAGE_SIZE;
    h->cfg_utcb   = PAGE_SIZE;

    Multiboot *mbi = static_cast<Multiboot *>(Hpt::remap (Pd::kern.quota, addr));
  20124a:	48 c7 c7 a8 3f 16 81 	mov    $0xffffffff81163fa8,%rdi

mword Hip::root_addr;
mword Hip::root_size;

void Hip::build (mword addr)
{
  201251:	53                   	push   %rbx
  201252:	48 83 ec 10          	sub    $0x10,%rsp
    Hip *h = hip();

    h->signature  = 0x41564f4e;
  201256:	c7 05 a0 5d f6 80 4e 	movl   $0x41564f4e,-0x7f09a260(%rip)        # ffffffff81167000 <PAGE_H>
  20125d:	4f 56 41 
    h->cpu_offs   = reinterpret_cast<mword>(h->cpu_desc) - reinterpret_cast<mword>(h);
  201260:	66 c7 05 9f 5d f6 80 	movw   $0x38,-0x7f09a261(%rip)        # ffffffff81167008 <PAGE_H+0x8>
  201267:	38 00 
    h->cpu_size   = static_cast<uint16>(sizeof (Hip_cpu));
  201269:	66 c7 05 98 5d f6 80 	movw   $0x8,-0x7f09a268(%rip)        # ffffffff8116700a <PAGE_H+0xa>
  201270:	08 00 
    h->mem_offs   = reinterpret_cast<mword>(h->mem_desc) - reinterpret_cast<mword>(h);
  201272:	66 c7 05 91 5d f6 80 	movw   $0x238,-0x7f09a26f(%rip)        # ffffffff8116700c <PAGE_H+0xc>
  201279:	38 02 
    h->mem_size   = static_cast<uint16>(sizeof (Hip_mem));
  20127b:	66 c7 05 8a 5d f6 80 	movw   $0x18,-0x7f09a276(%rip)        # ffffffff8116700e <PAGE_H+0xe>
  201282:	18 00 
    h->api_flg    = FEAT_VMX | FEAT_SVM;
  201284:	c7 05 82 5d f6 80 06 	movl   $0x6,-0x7f09a27e(%rip)        # ffffffff81167010 <PAGE_H+0x10>
  20128b:	00 00 00 
    h->api_ver    = CFG_VER;
  20128e:	c7 05 7c 5d f6 80 07 	movl   $0x7,-0x7f09a284(%rip)        # ffffffff81167014 <PAGE_H+0x14>
  201295:	00 00 00 
    h->sel_num    = Space_obj::caps;
  201298:	c7 05 76 5d f6 80 00 	movl   $0x4000000,-0x7f09a28a(%rip)        # ffffffff81167018 <PAGE_H+0x18>
  20129f:	00 00 04 
    h->sel_gsi    = NUM_GSI;
  2012a2:	c7 05 78 5d f6 80 80 	movl   $0x80,-0x7f09a288(%rip)        # ffffffff81167024 <PAGE_H+0x24>
  2012a9:	00 00 00 
    h->sel_exc    = NUM_EXC;
  2012ac:	c7 05 66 5d f6 80 20 	movl   $0x20,-0x7f09a29a(%rip)        # ffffffff8116701c <PAGE_H+0x1c>
  2012b3:	00 00 00 
    h->sel_vmi    = NUM_VMI;
  2012b6:	c7 05 60 5d f6 80 00 	movl   $0x100,-0x7f09a2a0(%rip)        # ffffffff81167020 <PAGE_H+0x20>
  2012bd:	01 00 00 
    h->cfg_page   = PAGE_SIZE;
  2012c0:	c7 05 5e 5d f6 80 00 	movl   $0x1000,-0x7f09a2a2(%rip)        # ffffffff81167028 <PAGE_H+0x28>
  2012c7:	10 00 00 
    h->cfg_utcb   = PAGE_SIZE;
  2012ca:	c7 05 58 5d f6 80 00 	movl   $0x1000,-0x7f09a2a8(%rip)        # ffffffff8116702c <PAGE_H+0x2c>
  2012d1:	10 00 00 

    Multiboot *mbi = static_cast<Multiboot *>(Hpt::remap (Pd::kern.quota, addr));
  2012d4:	e8 39 6e e0 80       	callq  ffffffff81008112 <_ZN3Hpt5remapER5Quotam>

    uint32 flags       = mbi->flags;
  2012d9:	44 8b 20             	mov    (%rax),%r12d
    uint32 cmdline     = mbi->cmdline;
  2012dc:	8b 78 10             	mov    0x10(%rax),%edi
    uint32 mmap_addr   = mbi->mmap_addr;
  2012df:	44 8b 68 30          	mov    0x30(%rax),%r13d
    uint32 mmap_len    = mbi->mmap_len;
  2012e3:	44 8b 70 2c          	mov    0x2c(%rax),%r14d
    uint32 mods_addr   = mbi->mods_addr;
  2012e7:	8b 58 18             	mov    0x18(%rax),%ebx
    uint32 mods_count  = mbi->mods_count;
  2012ea:	8b 68 14             	mov    0x14(%rax),%ebp

    if (flags & Multiboot::CMDLINE)
  2012ed:	41 f6 c4 04          	test   $0x4,%r12b
  2012f1:	74 05                	je     2012f8 <_ZN3Hip5buildEm+0xb8>
        Cmdline::init (cmdline);
  2012f3:	e8 74 f9 ff ff       	callq  200c6c <_ZN7Cmdline4initEm>

    Hip_mem *mem = h->mem_desc;

    if (flags & Multiboot::MEMORY_MAP)
  2012f8:	41 f6 c4 40          	test   $0x40,%r12b
    uint32 mods_count  = mbi->mods_count;

    if (flags & Multiboot::CMDLINE)
        Cmdline::init (cmdline);

    Hip_mem *mem = h->mem_desc;
  2012fc:	48 c7 44 24 08 38 72 	movq   $0xffffffff81167238,0x8(%rsp)
  201303:	16 81 

    if (flags & Multiboot::MEMORY_MAP)
  201305:	74 10                	je     201317 <_ZN3Hip5buildEm+0xd7>
        add_mem (mem, mmap_addr, mmap_len);
  201307:	48 8d 7c 24 08       	lea    0x8(%rsp),%rdi
  20130c:	44 89 f2             	mov    %r14d,%edx
  20130f:	44 89 ee             	mov    %r13d,%esi
  201312:	e8 33 fe ff ff       	callq  20114a <_ZN3Hip7add_memERP7Hip_memmm>

    if (flags & Multiboot::MODULES)
  201317:	41 80 e4 08          	and    $0x8,%r12b
  20131b:	74 0e                	je     20132b <_ZN3Hip5buildEm+0xeb>
        add_mod (mem, mods_addr, mods_count);
  20131d:	48 8d 7c 24 08       	lea    0x8(%rsp),%rdi
  201322:	89 ea                	mov    %ebp,%edx
  201324:	89 de                	mov    %ebx,%esi
  201326:	e8 77 fe ff ff       	callq  2011a2 <_ZN3Hip7add_modERP7Hip_memmm>

    add_mhv (mem);
  20132b:	48 8d 7c 24 08       	lea    0x8(%rsp),%rdi
  201330:	e8 e1 fe ff ff       	callq  201216 <_ZN3Hip7add_mhvERP7Hip_mem>

    h->length = static_cast<uint16>(reinterpret_cast<mword>(mem) - reinterpret_cast<mword>(h));
  201335:	48 8b 44 24 08       	mov    0x8(%rsp),%rax
  20133a:	48 2d 00 70 16 81    	sub    $0xffffffff81167000,%rax
  201340:	66 89 05 bf 5c f6 80 	mov    %ax,-0x7f09a341(%rip)        # ffffffff81167006 <PAGE_H+0x6>
}
  201347:	48 83 c4 10          	add    $0x10,%rsp
  20134b:	5b                   	pop    %rbx
  20134c:	5d                   	pop    %rbp
  20134d:	41 5c                	pop    %r12
  20134f:	41 5d                	pop    %r13
  201351:	41 5e                	pop    %r14
  201353:	c3                   	retq   

0000000000201354 <_ZN3Idt5buildEv>:
#include "selectors.hpp"

ALIGNED(8) Idt Idt::idt[VEC_MAX];

void Idt::build()
{
  201354:	31 d2                	xor    %edx,%edx
    mword *ptr = handlers;

    for (unsigned vector = 0; vector < VEC_MAX; vector++, ptr++)
        if (*ptr)
  201356:	48 8b 82 7c 16 02 81 	mov    -0x7efde984(%rdx),%rax
  20135d:	48 85 c0             	test   %rax,%rax
  201360:	74 3b                	je     20139d <_ZN3Idt5buildEv+0x49>
            idt[vector].set (SYS_INTR_GATE, *ptr & 3, SEL_KERN_CODE, *ptr & ~3);
  201362:	48 89 c1             	mov    %rax,%rcx
  201365:	83 e0 03             	and    $0x3,%eax
  201368:	48 83 e1 fc          	and    $0xfffffffffffffffc,%rcx

        ALWAYS_INLINE
        inline void set (Type type, unsigned dpl, unsigned selector, mword offset)
        {
            val[0] = static_cast<uint32>(selector << 16 | (offset & 0xffff));
            val[1] = static_cast<uint32>((offset & 0xffff0000) | 1u << 15 | dpl << 13 | type);
  20136c:	c1 e0 0d             	shl    $0xd,%eax
        uint32 val[sizeof (mword) / 2];

        ALWAYS_INLINE
        inline void set (Type type, unsigned dpl, unsigned selector, mword offset)
        {
            val[0] = static_cast<uint32>(selector << 16 | (offset & 0xffff));
  20136f:	0f b7 f1             	movzwl %cx,%esi
  201372:	81 ce 00 00 08 00    	or     $0x80000,%esi
  201378:	89 b4 12 90 2d 16 81 	mov    %esi,-0x7ee9d270(%rdx,%rdx,1)
            val[1] = static_cast<uint32>((offset & 0xffff0000) | 1u << 15 | dpl << 13 | type);
  20137f:	89 ce                	mov    %ecx,%esi
#ifdef __x86_64__
            val[2] = static_cast<uint32>(offset >> 32);
  201381:	48 c1 e9 20          	shr    $0x20,%rcx

        ALWAYS_INLINE
        inline void set (Type type, unsigned dpl, unsigned selector, mword offset)
        {
            val[0] = static_cast<uint32>(selector << 16 | (offset & 0xffff));
            val[1] = static_cast<uint32>((offset & 0xffff0000) | 1u << 15 | dpl << 13 | type);
  201385:	66 31 f6             	xor    %si,%si
#ifdef __x86_64__
            val[2] = static_cast<uint32>(offset >> 32);
  201388:	89 8c 12 98 2d 16 81 	mov    %ecx,-0x7ee9d268(%rdx,%rdx,1)

        ALWAYS_INLINE
        inline void set (Type type, unsigned dpl, unsigned selector, mword offset)
        {
            val[0] = static_cast<uint32>(selector << 16 | (offset & 0xffff));
            val[1] = static_cast<uint32>((offset & 0xffff0000) | 1u << 15 | dpl << 13 | type);
  20138f:	09 f0                	or     %esi,%eax
  201391:	80 cc 8e             	or     $0x8e,%ah
  201394:	89 84 12 94 2d 16 81 	mov    %eax,-0x7ee9d26c(%rdx,%rdx,1)
  20139b:	eb 21                	jmp    2013be <_ZN3Idt5buildEv+0x6a>
        uint32 val[sizeof (mword) / 2];

        ALWAYS_INLINE
        inline void set (Type type, unsigned dpl, unsigned selector, mword offset)
        {
            val[0] = static_cast<uint32>(selector << 16 | (offset & 0xffff));
  20139d:	c7 84 12 90 2d 16 81 	movl   $0x400000,-0x7ee9d270(%rdx,%rdx,1)
  2013a4:	00 00 40 00 
            val[1] = static_cast<uint32>((offset & 0xffff0000) | 1u << 15 | dpl << 13 | type);
  2013a8:	c7 84 12 94 2d 16 81 	movl   $0x8500,-0x7ee9d26c(%rdx,%rdx,1)
  2013af:	00 85 00 00 
#ifdef __x86_64__
            val[2] = static_cast<uint32>(offset >> 32);
  2013b3:	c7 84 12 98 2d 16 81 	movl   $0x0,-0x7ee9d268(%rdx,%rdx,1)
  2013ba:	00 00 00 00 
  2013be:	48 83 c2 08          	add    $0x8,%rdx

void Idt::build()
{
    mword *ptr = handlers;

    for (unsigned vector = 0; vector < VEC_MAX; vector++, ptr++)
  2013c2:	48 81 fa 50 05 00 00 	cmp    $0x550,%rdx
  2013c9:	75 8b                	jne    201356 <_ZN3Idt5buildEv+0x2>
        if (*ptr)
            idt[vector].set (SYS_INTR_GATE, *ptr & 3, SEL_KERN_CODE, *ptr & ~3);
        else
            idt[vector].set (SYS_TASK_GATE, 0, SEL_TSS_DBF, 0);
}
  2013cb:	c3                   	retq   

00000000002013cc <kern_ptab_setup>:
#include "pd.hpp"
#include "cow.hpp"

extern "C" INIT
mword kern_ptab_setup()
{
  2013cc:	53                   	push   %rbx
    Hptp hpt;

    // Allocate and map cpu page
    hpt.update (Pd::kern.quota, CPU_LOCAL_DATA, 0,
                Buddy::ptr_to_phys (Buddy::allocator.alloc (0, Pd::kern.quota, Buddy::FILL_0)),
                Hpt::HPT_NX | Hpt::HPT_G | Hpt::HPT_W | Hpt::HPT_P);
  2013cd:	b9 01 00 00 00       	mov    $0x1,%ecx
  2013d2:	48 c7 c2 a8 3f 16 81 	mov    $0xffffffff81163fa8,%rdx
  2013d9:	31 f6                	xor    %esi,%esi
  2013db:	48 c7 c7 30 1d 02 81 	mov    $0xffffffff81021d30,%rdi
  2013e2:	48 c7 c3 00 00 c0 80 	mov    $0xffffffff80c00000,%rbx
#include "pd.hpp"
#include "cow.hpp"

extern "C" INIT
mword kern_ptab_setup()
{
  2013e9:	48 83 ec 10          	sub    $0x10,%rsp

    void free_up(Quota &quota, unsigned l, P *, mword, bool (*) (Paddr, mword, unsigned), bool (*) (unsigned, mword));

public:

    Pte() : val(0) {
  2013ed:	48 c7 44 24 08 00 00 	movq   $0x0,0x8(%rsp)
  2013f4:	00 00 
    Hptp hpt;

    // Allocate and map cpu page
    hpt.update (Pd::kern.quota, CPU_LOCAL_DATA, 0,
                Buddy::ptr_to_phys (Buddy::allocator.alloc (0, Pd::kern.quota, Buddy::FILL_0)),
                Hpt::HPT_NX | Hpt::HPT_G | Hpt::HPT_W | Hpt::HPT_P);
  2013f6:	e8 f7 04 e0 80       	callq  ffffffff810018f2 <_ZN5Buddy5allocEtR5QuotaNS_4FillE>
  2013fb:	6a 00                	pushq  $0x0
  2013fd:	6a 00                	pushq  $0x0
  2013ff:	48 29 d8             	sub    %rbx,%rax
  201402:	41 b9 03 01 00 00    	mov    $0x103,%r9d
  201408:	49 89 c0             	mov    %rax,%r8
  20140b:	31 c9                	xor    %ecx,%ecx
  20140d:	48 8d 7c 24 18       	lea    0x18(%rsp),%rdi
  201412:	48 c7 c2 00 f0 ff bf 	mov    $0xffffffffbffff000,%rdx
  201419:	48 c7 c6 a8 3f 16 81 	mov    $0xffffffff81163fa8,%rsi
  201420:	e8 f1 18 e1 80       	callq  ffffffff81012d16 <_ZN3PteI3HptmLj4ELj9ELb0EE6updateER5QuotammmmNS1_4TypeEb>

    // Allocate and map kernel stack
    hpt.update (Pd::kern.quota, CPU_LOCAL_STCK, 0,
                Buddy::ptr_to_phys (Buddy::allocator.alloc (0, Pd::kern.quota, Buddy::FILL_0)),
                Hpt::HPT_NX | Hpt::HPT_G | Hpt::HPT_W | Hpt::HPT_P);
  201425:	b9 01 00 00 00       	mov    $0x1,%ecx
  20142a:	48 c7 c2 a8 3f 16 81 	mov    $0xffffffff81163fa8,%rdx
  201431:	31 f6                	xor    %esi,%esi
  201433:	48 c7 c7 30 1d 02 81 	mov    $0xffffffff81021d30,%rdi
  20143a:	e8 b3 04 e0 80       	callq  ffffffff810018f2 <_ZN5Buddy5allocEtR5QuotaNS_4FillE>
  20143f:	6a 00                	pushq  $0x0
  201441:	6a 00                	pushq  $0x0
  201443:	48 29 d8             	sub    %rbx,%rax
  201446:	41 b9 03 01 00 00    	mov    $0x103,%r9d
  20144c:	49 89 c0             	mov    %rax,%r8
  20144f:	31 c9                	xor    %ecx,%ecx
  201451:	48 8d 7c 24 28       	lea    0x28(%rsp),%rdi
  201456:	48 c7 c2 00 d0 ff bf 	mov    $0xffffffffbfffd000,%rdx
  20145d:	48 c7 c6 a8 3f 16 81 	mov    $0xffffffff81163fa8,%rsi
  201464:	e8 ad 18 e1 80       	callq  ffffffff81012d16 <_ZN3PteI3HptmLj4ELj9ELb0EE6updateER5QuotammmmNS1_4TypeEb>

    // Sync kernel code and data
    hpt.sync_master_range (Pd::kern.quota, LINK_ADDR, CPU_LOCAL);
  201469:	48 83 c4 20          	add    $0x20,%rsp
  20146d:	48 c7 c1 00 00 e0 bf 	mov    $0xffffffffbfe00000,%rcx
  201474:	48 c7 c2 00 00 00 81 	mov    $0xffffffff81000000,%rdx
  20147b:	48 8d 7c 24 08       	lea    0x8(%rsp),%rdi
  201480:	48 c7 c6 a8 3f 16 81 	mov    $0xffffffff81163fa8,%rsi
  201487:	e8 b2 6b e0 80       	callq  ffffffff8100803e <_ZN3Hpt17sync_master_rangeER5Quotamm>
        PTE_U = HPT_U,
    };

    ALWAYS_INLINE
    inline Paddr addr() const {
        return static_cast<Paddr> (val) & ~PAGE_MASK;
  20148c:	48 8b 44 24 08       	mov    0x8(%rsp),%rax

    return hpt.addr();
}
  201491:	48 83 c4 10          	add    $0x10,%rsp
  201495:	5b                   	pop    %rbx
  201496:	48 25 00 f0 ff ff    	and    $0xfffffffffffff000,%rax
  20149c:	c3                   	retq   

000000000020149d <init>:

extern "C" INIT REGPARM (1)
void init (mword mbi)
{
  20149d:	55                   	push   %rbp
  20149e:	53                   	push   %rbx
  20149f:	48 89 fd             	mov    %rdi,%rbp
  2014a2:	52                   	push   %rdx
  2014a3:	ba 00 10 00 00       	mov    $0x1000,%edx
  2014a8:	48 c7 c7 00 50 16 81 	mov    $0xffffffff81165000,%rdi
  2014af:	48 89 d1             	mov    %rdx,%rcx
  2014b2:	31 c0                	xor    %eax,%eax
  2014b4:	f3 aa                	rep stos %al,%es:(%rdi)
  2014b6:	48 c7 c7 00 60 16 81 	mov    $0xffffffff81166000,%rdi
  2014bd:	48 89 d1             	mov    %rdx,%rcx
  2014c0:	83 c8 ff             	or     $0xffffffff,%eax
  2014c3:	f3 aa                	rep stos %al,%es:(%rdi)
    // Setup 0-page and 1-page
    memset (reinterpret_cast<void *>(&PAGE_0),  0,  PAGE_SIZE);
    memset (reinterpret_cast<void *>(&PAGE_1), ~0u, PAGE_SIZE);

    for (void (**func)() = &CTORS_G; func != &CTORS_E; (*func++)()) ;
  2014c5:	48 c7 c3 d8 15 02 81 	mov    $0xffffffff810215d8,%rbx
  2014cc:	48 81 fb 78 16 02 81 	cmp    $0xffffffff81021678,%rbx
  2014d3:	74 09                	je     2014de <init+0x41>
  2014d5:	48 83 c3 08          	add    $0x8,%rbx
  2014d9:	ff 53 f8             	callq  *-0x8(%rbx)
  2014dc:	eb ee                	jmp    2014cc <init+0x2f>

    Hip::build (mbi);
  2014de:	48 89 ef             	mov    %rbp,%rdi

    for (void (**func)() = &CTORS_C; func != &CTORS_G; (*func++)()) ;
  2014e1:	48 c7 c3 c8 15 02 81 	mov    $0xffffffff810215c8,%rbx
    memset (reinterpret_cast<void *>(&PAGE_0),  0,  PAGE_SIZE);
    memset (reinterpret_cast<void *>(&PAGE_1), ~0u, PAGE_SIZE);

    for (void (**func)() = &CTORS_G; func != &CTORS_E; (*func++)()) ;

    Hip::build (mbi);
  2014e8:	e8 53 fd ff ff       	callq  201240 <_ZN3Hip5buildEm>

    for (void (**func)() = &CTORS_C; func != &CTORS_G; (*func++)()) ;
  2014ed:	48 81 fb d8 15 02 81 	cmp    $0xffffffff810215d8,%rbx
  2014f4:	74 09                	je     2014ff <init+0x62>
  2014f6:	48 83 c3 08          	add    $0x8,%rbx
  2014fa:	ff 53 f8             	callq  *-0x8(%rbx)
  2014fd:	eb ee                	jmp    2014ed <init+0x50>

    // Now we're ready to talk to the world
    Console::print ("\fNOVA Microhypervisor v%d-%07lx (%s): %s %s [%s]\n", CFG_VER, reinterpret_cast<mword>(&GIT_VER), ARCH, __DATE__, __TIME__, COMPILER_STRING);
  2014ff:	50                   	push   %rax
  201500:	68 9d e5 01 81       	pushq  $0xffffffff8101e59d
  201505:	49 c7 c1 4f e5 01 81 	mov    $0xffffffff8101e54f,%r9
  20150c:	49 c7 c0 58 e5 01 81 	mov    $0xffffffff8101e558,%r8
  201513:	48 c7 c1 64 e5 01 81 	mov    $0xffffffff8101e564,%rcx
  20151a:	48 c7 c2 f2 c9 0b 04 	mov    $0x40bc9f2,%rdx
  201521:	be 07 00 00 00       	mov    $0x7,%esi
  201526:	31 c0                	xor    %eax,%eax
  201528:	48 c7 c7 6b e5 01 81 	mov    $0xffffffff8101e56b,%rdi
  20152f:	e8 58 0b e0 80       	callq  ffffffff8100208c <_ZN7Console5printEPKcz>

    Idt::build();
  201534:	e8 1b fe ff ff       	callq  201354 <_ZN3Idt5buildEv>
    Gsi::setup();
  201539:	e8 74 fb ff ff       	callq  2010b2 <_ZN3Gsi5setupEv>
    Acpi::setup();
  20153e:	e8 bd ea ff ff       	callq  200000 <_ZN4Acpi5setupEv>

    Console_vga::con.setup();
  201543:	48 c7 c7 d0 1d 02 81 	mov    $0xffffffff81021dd0,%rdi
  20154a:	e8 8f f8 ff ff       	callq  200dde <_ZN11Console_vga5setupEv>

    Keyb::init();
  20154f:	e8 c0 00 00 00       	callq  201614 <_ZN4Keyb4initEv>
    Cow::initialize();
    
}
  201554:	48 83 c4 18          	add    $0x18,%rsp
  201558:	5b                   	pop    %rbx
  201559:	5d                   	pop    %rbp
    Acpi::setup();

    Console_vga::con.setup();

    Keyb::init();
    Cow::initialize();
  20155a:	e9 fd 6c e0 80       	jmpq   ffffffff8100825c <_ZN3Cow10initializeEv>
  20155f:	90                   	nop

0000000000201560 <_ZN6IoapicC1Emjj>:
INIT_PRIORITY (PRIO_SLAB)
Slab_cache Ioapic::cache (sizeof (Ioapic), 8);

Ioapic *Ioapic::list;

Ioapic::Ioapic (Paddr p, unsigned i, unsigned g) : List<Ioapic> (list), reg_base ((hwdev_addr -= PAGE_SIZE) | (p & PAGE_MASK)), gsi_base (g), id (i), rid (0)
  201560:	53                   	push   %rbx
  201561:	48 89 fb             	mov    %rdi,%rbx
  201564:	48 83 ec 10          	sub    $0x10,%rsp
    protected:
        T *next;

    public:
        ALWAYS_INLINE
        explicit inline List (T *&list) : next (nullptr)
  201568:	48 c7 07 00 00 00 00 	movq   $0x0,(%rdi)
        {
            T **ptr; for (ptr = &list; *ptr; ptr = &(*ptr)->next) ; *ptr = static_cast<T *>(this);
  20156f:	48 8b 05 ba 22 f6 80 	mov    -0x7f09dd46(%rip),%rax        # ffffffff81163830 <_ZN6Ioapic4listE>
  201576:	48 c7 c7 30 38 16 81 	mov    $0xffffffff81163830,%rdi
  20157d:	48 85 c0             	test   %rax,%rax
  201580:	74 08                	je     20158a <_ZN6IoapicC1Emjj+0x2a>
  201582:	48 89 c7             	mov    %rax,%rdi
  201585:	48 8b 00             	mov    (%rax),%rax
  201588:	eb f3                	jmp    20157d <_ZN6IoapicC1Emjj+0x1d>
  20158a:	48 89 1f             	mov    %rbx,(%rdi)
  20158d:	48 8b 05 3c 06 e2 80 	mov    -0x7f1df9c4(%rip),%rax        # ffffffff81021bd0 <hwdev_addr>
  201594:	48 89 f7             	mov    %rsi,%rdi
  201597:	81 e7 ff 0f 00 00    	and    $0xfff,%edi
{
    Pd::kern.Space_mem::delreg (Pd::kern.quota, p & ~PAGE_MASK);
  20159d:	48 81 e6 00 f0 ff ff 	and    $0xfffffffffffff000,%rsi
INIT_PRIORITY (PRIO_SLAB)
Slab_cache Ioapic::cache (sizeof (Ioapic), 8);

Ioapic *Ioapic::list;

Ioapic::Ioapic (Paddr p, unsigned i, unsigned g) : List<Ioapic> (list), reg_base ((hwdev_addr -= PAGE_SIZE) | (p & PAGE_MASK)), gsi_base (g), id (i), rid (0)
  2015a4:	89 4b 10             	mov    %ecx,0x10(%rbx)
{
    Pd::kern.Space_mem::delreg (Pd::kern.quota, p & ~PAGE_MASK);
  2015a7:	48 89 74 24 08       	mov    %rsi,0x8(%rsp)
INIT_PRIORITY (PRIO_SLAB)
Slab_cache Ioapic::cache (sizeof (Ioapic), 8);

Ioapic *Ioapic::list;

Ioapic::Ioapic (Paddr p, unsigned i, unsigned g) : List<Ioapic> (list), reg_base ((hwdev_addr -= PAGE_SIZE) | (p & PAGE_MASK)), gsi_base (g), id (i), rid (0)
  2015ac:	89 53 14             	mov    %edx,0x14(%rbx)
{
    Pd::kern.Space_mem::delreg (Pd::kern.quota, p & ~PAGE_MASK);
  2015af:	48 89 f2             	mov    %rsi,%rdx
INIT_PRIORITY (PRIO_SLAB)
Slab_cache Ioapic::cache (sizeof (Ioapic), 8);

Ioapic *Ioapic::list;

Ioapic::Ioapic (Paddr p, unsigned i, unsigned g) : List<Ioapic> (list), reg_base ((hwdev_addr -= PAGE_SIZE) | (p & PAGE_MASK)), gsi_base (g), id (i), rid (0)
  2015b2:	48 2d 00 10 00 00    	sub    $0x1000,%rax
  2015b8:	66 c7 43 18 00 00    	movw   $0x0,0x18(%rbx)
  2015be:	66 c7 43 1a 00 00    	movw   $0x0,0x1a(%rbx)
  2015c4:	48 89 05 05 06 e2 80 	mov    %rax,-0x7f1df9fb(%rip)        # ffffffff81021bd0 <hwdev_addr>
  2015cb:	48 09 f8             	or     %rdi,%rax
{
    Pd::kern.Space_mem::delreg (Pd::kern.quota, p & ~PAGE_MASK);
  2015ce:	48 c7 c6 a8 3f 16 81 	mov    $0xffffffff81163fa8,%rsi
INIT_PRIORITY (PRIO_SLAB)
Slab_cache Ioapic::cache (sizeof (Ioapic), 8);

Ioapic *Ioapic::list;

Ioapic::Ioapic (Paddr p, unsigned i, unsigned g) : List<Ioapic> (list), reg_base ((hwdev_addr -= PAGE_SIZE) | (p & PAGE_MASK)), gsi_base (g), id (i), rid (0)
  2015d5:	48 89 43 08          	mov    %rax,0x8(%rbx)
{
    Pd::kern.Space_mem::delreg (Pd::kern.quota, p & ~PAGE_MASK);
  2015d9:	48 c7 c7 30 3d 16 81 	mov    $0xffffffff81163d30,%rdi
  2015e0:	e8 a9 19 e0 80       	callq  ffffffff81002f8e <_ZN5Space6delregER5Quotam>
  2015e5:	6a 00                	pushq  $0x0
  2015e7:	48 8b 53 08          	mov    0x8(%rbx),%rdx
  2015eb:	41 b9 13 01 00 00    	mov    $0x113,%r9d
  2015f1:	6a 00                	pushq  $0x0
  2015f3:	4c 8b 44 24 18       	mov    0x18(%rsp),%r8
  2015f8:	31 c9                	xor    %ecx,%ecx
  2015fa:	48 c7 c6 a8 3f 16 81 	mov    $0xffffffff81163fa8,%rsi
  201601:	48 c7 c7 40 3f 16 81 	mov    $0xffffffff81163f40,%rdi
  201608:	e8 09 17 e1 80       	callq  ffffffff81012d16 <_ZN3PteI3HptmLj4ELj9ELb0EE6updateER5QuotammmmNS1_4TypeEb>
    Pd::kern.Space_mem::insert (Pd::kern.quota, reg_base, 0, Hpt::HPT_NX | Hpt::HPT_G | Hpt::HPT_UC | Hpt::HPT_W | Hpt::HPT_P, p & ~PAGE_MASK);

    trace (TRACE_APIC, "APIC:%#lx ID:%#x VER:%#x IRT:%#x PRQ:%u GSI:%u",
           p, i, version(), irt_max(), prq(), gsi_base);
}
  20160d:	48 83 c4 20          	add    $0x20,%rsp
  201611:	5b                   	pop    %rbx
  201612:	c3                   	retq   
  201613:	90                   	nop

0000000000201614 <_ZN4Keyb4initEv>:

unsigned Keyb::gsi = ~0u;

void Keyb::init()
{
    if (!Cmdline::keyb)
  201614:	80 3d 84 07 e2 80 00 	cmpb   $0x0,-0x7f1df87c(%rip)        # ffffffff81021d9f <_ZN7Cmdline4keybE>
  20161b:	75 01                	jne    20161e <_ZN4Keyb4initEv+0xa>
  20161d:	c3                   	retq   
        template <typename T>
        ALWAYS_INLINE
        static inline unsigned in (unsigned port)
        {
            T val;
            asm volatile ("in %w1, %0" : "=a" (val) : "Nd" (port));
  20161e:	e4 64                	in     $0x64,%al
        return;

    while (status() & STS_OUTB)
  201620:	a8 01                	test   $0x1,%al
  201622:	74 04                	je     201628 <_ZN4Keyb4initEv+0x14>
  201624:	e4 60                	in     $0x60,%al
  201626:	eb f6                	jmp    20161e <_ZN4Keyb4initEv+0xa>
  201628:	8b 3d d6 0a f6 80    	mov    -0x7f09f52a(%rip),%edi        # ffffffff81162104 <_ZN3Gsi9irq_tableE+0x4>

    gsi = Gsi::irq_to_gsi (irq);

    trace (TRACE_KEYB, "KEYB: GSI:%#x", gsi);

    Gsi::set (gsi);
  20162e:	31 d2                	xor    %edx,%edx
  201630:	31 f6                	xor    %esi,%esi
        return;

    while (status() & STS_OUTB)
        output();

    gsi = Gsi::irq_to_gsi (irq);
  201632:	89 3d 94 05 e2 80    	mov    %edi,-0x7f1dfa6c(%rip)        # ffffffff81021bcc <_ZN4Keyb3gsiE>

    trace (TRACE_KEYB, "KEYB: GSI:%#x", gsi);

    Gsi::set (gsi);
  201638:	e9 51 64 e0 80       	jmpq   ffffffff81007a8e <_ZN3Gsi3setEjjj>
  20163d:	90                   	nop

000000000020163e <_ZN4Mtrr4initEv>:

INIT_PRIORITY (PRIO_SLAB)
Slab_cache Mtrr::cache (sizeof (Mtrr), 8);

void Mtrr::init()
{
  20163e:	41 55                	push   %r13
  201640:	41 54                	push   %r12
        template <typename T>
        ALWAYS_INLINE
        static inline T read (Register msr)
        {
            mword h, l;
            asm volatile ("rdmsr" : "=a" (l), "=d" (h) : "c" (msr));
  201642:	b9 fe 00 00 00       	mov    $0xfe,%ecx
  201647:	55                   	push   %rbp
  201648:	53                   	push   %rbx
  201649:	52                   	push   %rdx
  20164a:	0f 32                	rdmsr  
    count = Msr::read<uint32>(Msr::IA32_MTRR_CAP) & 0xff;
  20164c:	0f b6 c8             	movzbl %al,%ecx
  20164f:	89 0d 97 22 f6 80    	mov    %ecx,-0x7f09dd69(%rip)        # ffffffff811638ec <_ZN4Mtrr5countE>
  201655:	b9 ff 02 00 00       	mov    $0x2ff,%ecx
  20165a:	0f 32                	rdmsr  
    dtype = Msr::read<uint32>(Msr::IA32_MTRR_DEF_TYPE) & 0xff;
  20165c:	0f b6 c8             	movzbl %al,%ecx

    for (unsigned i = 0; i < count; i++)
  20165f:	41 bc 00 02 00 00    	mov    $0x200,%r12d
  201665:	45 31 ed             	xor    %r13d,%r13d
Slab_cache Mtrr::cache (sizeof (Mtrr), 8);

void Mtrr::init()
{
    count = Msr::read<uint32>(Msr::IA32_MTRR_CAP) & 0xff;
    dtype = Msr::read<uint32>(Msr::IA32_MTRR_DEF_TYPE) & 0xff;
  201668:	89 0d 7a 22 f6 80    	mov    %ecx,-0x7f09dd86(%rip)        # ffffffff811638e8 <_ZN4Mtrr5dtypeE>

    for (unsigned i = 0; i < count; i++)
  20166e:	44 3b 2d 77 22 f6 80 	cmp    -0x7f09dd89(%rip),%r13d        # ffffffff811638ec <_ZN4Mtrr5countE>
  201675:	73 6c                	jae    2016e3 <_ZN4Mtrr4initEv+0xa5>
  201677:	44 89 e1             	mov    %r12d,%ecx
  20167a:	0f 32                	rdmsr  
            return static_cast<T>(static_cast<uint64>(h) << 32 | l);
  20167c:	48 c1 e2 20          	shl    $0x20,%rdx
        new (Pd::kern.quota) Mtrr (Msr::read<uint64>(Msr::Register (Msr::IA32_MTRR_PHYS_BASE + 2 * i)),
                                   Msr::read<uint64>(Msr::Register (Msr::IA32_MTRR_PHYS_MASK + 2 * i)));
  201680:	41 8d 4c 24 01       	lea    0x1(%r12),%ecx
  201685:	48 09 c2             	or     %rax,%rdx
  201688:	48 89 d5             	mov    %rdx,%rbp
        template <typename T>
        ALWAYS_INLINE
        static inline T read (Register msr)
        {
            mword h, l;
            asm volatile ("rdmsr" : "=a" (l), "=d" (h) : "c" (msr));
  20168b:	0f 32                	rdmsr  
            return static_cast<T>(static_cast<uint64>(h) << 32 | l);
  20168d:	48 89 d6             	mov    %rdx,%rsi
    public:
        ALWAYS_INLINE
        explicit inline Mtrr (uint64 b, uint64 m) : List<Mtrr> (list), base (b), mask (m) {}

        ALWAYS_INLINE
        static inline void *operator new (size_t, Quota &quota) { return cache.alloc(quota); }
  201690:	48 c7 c7 b0 38 16 81 	mov    $0xffffffff811638b0,%rdi
  201697:	48 c1 e6 20          	shl    $0x20,%rsi
  20169b:	48 89 f3             	mov    %rsi,%rbx
  20169e:	48 c7 c6 a8 3f 16 81 	mov    $0xffffffff81163fa8,%rsi
  2016a5:	48 09 c3             	or     %rax,%rbx
  2016a8:	e8 81 42 e1 80       	callq  ffffffff8101592e <_ZN10Slab_cache5allocER5Quota>
    protected:
        T *next;

    public:
        ALWAYS_INLINE
        explicit inline List (T *&list) : next (nullptr)
  2016ad:	48 c7 00 00 00 00 00 	movq   $0x0,(%rax)
        {
            T **ptr; for (ptr = &list; *ptr; ptr = &(*ptr)->next) ; *ptr = static_cast<T *>(this);
  2016b4:	48 8b 35 25 22 f6 80 	mov    -0x7f09dddb(%rip),%rsi        # ffffffff811638e0 <_ZN4Mtrr4listE>
  2016bb:	48 c7 c2 e0 38 16 81 	mov    $0xffffffff811638e0,%rdx
  2016c2:	48 85 f6             	test   %rsi,%rsi
  2016c5:	74 08                	je     2016cf <_ZN4Mtrr4initEv+0x91>
  2016c7:	48 89 f2             	mov    %rsi,%rdx
  2016ca:	48 8b 36             	mov    (%rsi),%rsi
  2016cd:	eb f3                	jmp    2016c2 <_ZN4Mtrr4initEv+0x84>
  2016cf:	48 89 02             	mov    %rax,(%rdx)
void Mtrr::init()
{
    count = Msr::read<uint32>(Msr::IA32_MTRR_CAP) & 0xff;
    dtype = Msr::read<uint32>(Msr::IA32_MTRR_DEF_TYPE) & 0xff;

    for (unsigned i = 0; i < count; i++)
  2016d2:	41 ff c5             	inc    %r13d
                                                       bit_scan_forward (static_cast<mword>(mask >> 32)) + 32);
        }

    public:
        ALWAYS_INLINE
        explicit inline Mtrr (uint64 b, uint64 m) : List<Mtrr> (list), base (b), mask (m) {}
  2016d5:	48 89 68 08          	mov    %rbp,0x8(%rax)
  2016d9:	48 89 58 10          	mov    %rbx,0x10(%rax)
  2016dd:	41 83 c4 02          	add    $0x2,%r12d
  2016e1:	eb 8b                	jmp    20166e <_ZN4Mtrr4initEv+0x30>
        new (Pd::kern.quota) Mtrr (Msr::read<uint64>(Msr::Register (Msr::IA32_MTRR_PHYS_BASE + 2 * i)),
                                   Msr::read<uint64>(Msr::Register (Msr::IA32_MTRR_PHYS_MASK + 2 * i)));
}
  2016e3:	58                   	pop    %rax
  2016e4:	5b                   	pop    %rbx
  2016e5:	5d                   	pop    %rbp
  2016e6:	41 5c                	pop    %r12
  2016e8:	41 5d                	pop    %r13
  2016ea:	c3                   	retq   
  2016eb:	90                   	nop

00000000002016ec <_ZN4Mtrr7memtypeEyRy>:

unsigned Mtrr::memtype (uint64 phys, uint64 &next)
{
    if (phys < 0x80000) {
  2016ec:	48 81 ff ff ff 07 00 	cmp    $0x7ffff,%rdi
  2016f3:	77 23                	ja     201718 <_ZN4Mtrr7memtypeEyRy+0x2c>
        next = 1 + (phys | 0xffff);
  2016f5:	48 89 f8             	mov    %rdi,%rax
        template <typename T>
        ALWAYS_INLINE
        static inline T read (Register msr)
        {
            mword h, l;
            asm volatile ("rdmsr" : "=a" (l), "=d" (h) : "c" (msr));
  2016f8:	b9 50 02 00 00       	mov    $0x250,%ecx
  2016fd:	48 0d ff ff 00 00    	or     $0xffff,%rax
  201703:	48 ff c0             	inc    %rax
  201706:	48 89 06             	mov    %rax,(%rsi)
  201709:	0f 32                	rdmsr  
            return static_cast<T>(static_cast<uint64>(h) << 32 | l);
  20170b:	48 c1 e2 20          	shl    $0x20,%rdx
        return static_cast<unsigned>(Msr::read<uint64>(Msr::IA32_MTRR_FIX64K_BASE) >>
                                    (phys >> 13 & 0x38)) & 0xff;
  20170f:	48 c1 ef 0d          	shr    $0xd,%rdi
  201713:	48 09 d0             	or     %rdx,%rax
  201716:	eb 35                	jmp    20174d <_ZN4Mtrr7memtypeEyRy+0x61>
    }

    if (phys < 0xc0000) {
  201718:	48 81 ff ff ff 0b 00 	cmp    $0xbffff,%rdi
  20171f:	77 38                	ja     201759 <_ZN4Mtrr7memtypeEyRy+0x6d>
        next = 1 + (phys | 0x3fff);
  201721:	48 89 f8             	mov    %rdi,%rax
        return static_cast<unsigned>(Msr::read<uint64>(Msr::Register (Msr::IA32_MTRR_FIX16K_BASE + (phys >> 17 & 0x1))) >>
  201724:	48 89 f9             	mov    %rdi,%rcx
        return static_cast<unsigned>(Msr::read<uint64>(Msr::IA32_MTRR_FIX64K_BASE) >>
                                    (phys >> 13 & 0x38)) & 0xff;
    }

    if (phys < 0xc0000) {
        next = 1 + (phys | 0x3fff);
  201727:	48 0d ff 3f 00 00    	or     $0x3fff,%rax
        return static_cast<unsigned>(Msr::read<uint64>(Msr::Register (Msr::IA32_MTRR_FIX16K_BASE + (phys >> 17 & 0x1))) >>
  20172d:	48 c1 e9 11          	shr    $0x11,%rcx
        return static_cast<unsigned>(Msr::read<uint64>(Msr::IA32_MTRR_FIX64K_BASE) >>
                                    (phys >> 13 & 0x38)) & 0xff;
    }

    if (phys < 0xc0000) {
        next = 1 + (phys | 0x3fff);
  201731:	48 ff c0             	inc    %rax
        return static_cast<unsigned>(Msr::read<uint64>(Msr::Register (Msr::IA32_MTRR_FIX16K_BASE + (phys >> 17 & 0x1))) >>
  201734:	83 e1 01             	and    $0x1,%ecx
        return static_cast<unsigned>(Msr::read<uint64>(Msr::IA32_MTRR_FIX64K_BASE) >>
                                    (phys >> 13 & 0x38)) & 0xff;
    }

    if (phys < 0xc0000) {
        next = 1 + (phys | 0x3fff);
  201737:	48 89 06             	mov    %rax,(%rsi)
        return static_cast<unsigned>(Msr::read<uint64>(Msr::Register (Msr::IA32_MTRR_FIX16K_BASE + (phys >> 17 & 0x1))) >>
  20173a:	81 c1 58 02 00 00    	add    $0x258,%ecx
        template <typename T>
        ALWAYS_INLINE
        static inline T read (Register msr)
        {
            mword h, l;
            asm volatile ("rdmsr" : "=a" (l), "=d" (h) : "c" (msr));
  201740:	0f 32                	rdmsr  
            return static_cast<T>(static_cast<uint64>(h) << 32 | l);
  201742:	48 c1 e2 20          	shl    $0x20,%rdx
                                    (phys >> 11 & 0x38)) & 0xff;
  201746:	48 c1 ef 0b          	shr    $0xb,%rdi
  20174a:	48 09 d0             	or     %rdx,%rax
                                    (phys >> 13 & 0x38)) & 0xff;
    }

    if (phys < 0xc0000) {
        next = 1 + (phys | 0x3fff);
        return static_cast<unsigned>(Msr::read<uint64>(Msr::Register (Msr::IA32_MTRR_FIX16K_BASE + (phys >> 17 & 0x1))) >>
  20174d:	89 f9                	mov    %edi,%ecx
  20174f:	83 e1 38             	and    $0x38,%ecx
  201752:	48 d3 e8             	shr    %cl,%rax
                                    (phys >> 11 & 0x38)) & 0xff;
  201755:	0f b6 c0             	movzbl %al,%eax
  201758:	c3                   	retq   
    }

    if (phys < 0x100000) {
  201759:	48 81 ff ff ff 0f 00 	cmp    $0xfffff,%rdi
  201760:	77 2e                	ja     201790 <_ZN4Mtrr7memtypeEyRy+0xa4>
        next = 1 + (phys | 0xfff);
  201762:	48 89 f8             	mov    %rdi,%rax
        return static_cast<unsigned>(Msr::read<uint64>(Msr::Register (Msr::IA32_MTRR_FIX4K_BASE  + (phys >> 15 & 0x7))) >>
  201765:	48 89 f9             	mov    %rdi,%rcx
        return static_cast<unsigned>(Msr::read<uint64>(Msr::Register (Msr::IA32_MTRR_FIX16K_BASE + (phys >> 17 & 0x1))) >>
                                    (phys >> 11 & 0x38)) & 0xff;
    }

    if (phys < 0x100000) {
        next = 1 + (phys | 0xfff);
  201768:	48 0d ff 0f 00 00    	or     $0xfff,%rax
        return static_cast<unsigned>(Msr::read<uint64>(Msr::Register (Msr::IA32_MTRR_FIX4K_BASE  + (phys >> 15 & 0x7))) >>
  20176e:	48 c1 e9 0f          	shr    $0xf,%rcx
        return static_cast<unsigned>(Msr::read<uint64>(Msr::Register (Msr::IA32_MTRR_FIX16K_BASE + (phys >> 17 & 0x1))) >>
                                    (phys >> 11 & 0x38)) & 0xff;
    }

    if (phys < 0x100000) {
        next = 1 + (phys | 0xfff);
  201772:	48 ff c0             	inc    %rax
        return static_cast<unsigned>(Msr::read<uint64>(Msr::Register (Msr::IA32_MTRR_FIX4K_BASE  + (phys >> 15 & 0x7))) >>
  201775:	83 e1 07             	and    $0x7,%ecx
        return static_cast<unsigned>(Msr::read<uint64>(Msr::Register (Msr::IA32_MTRR_FIX16K_BASE + (phys >> 17 & 0x1))) >>
                                    (phys >> 11 & 0x38)) & 0xff;
    }

    if (phys < 0x100000) {
        next = 1 + (phys | 0xfff);
  201778:	48 89 06             	mov    %rax,(%rsi)
        return static_cast<unsigned>(Msr::read<uint64>(Msr::Register (Msr::IA32_MTRR_FIX4K_BASE  + (phys >> 15 & 0x7))) >>
  20177b:	81 c1 68 02 00 00    	add    $0x268,%ecx
        template <typename T>
        ALWAYS_INLINE
        static inline T read (Register msr)
        {
            mword h, l;
            asm volatile ("rdmsr" : "=a" (l), "=d" (h) : "c" (msr));
  201781:	0f 32                	rdmsr  
            return static_cast<T>(static_cast<uint64>(h) << 32 | l);
  201783:	48 c1 e2 20          	shl    $0x20,%rdx
                                    (phys >>  9 & 0x38)) & 0xff;
  201787:	48 c1 ef 09          	shr    $0x9,%rdi
  20178b:	48 09 d0             	or     %rdx,%rax
  20178e:	eb bd                	jmp    20174d <_ZN4Mtrr7memtypeEyRy+0x61>
    }

    unsigned type = ~0U; next = ~0ULL;
  201790:	48 c7 06 ff ff ff ff 	movq   $0xffffffffffffffff,(%rsi)

    for (Mtrr *mtrr = list; mtrr; mtrr = mtrr->next) {
  201797:	4c 8b 05 42 21 f6 80 	mov    -0x7f09debe(%rip),%r8        # ffffffff811638e0 <_ZN4Mtrr4listE>
        next = 1 + (phys | 0xfff);
        return static_cast<unsigned>(Msr::read<uint64>(Msr::Register (Msr::IA32_MTRR_FIX4K_BASE  + (phys >> 15 & 0x7))) >>
                                    (phys >>  9 & 0x38)) & 0xff;
    }

    unsigned type = ~0U; next = ~0ULL;
  20179e:	83 c8 ff             	or     $0xffffffff,%eax
        static Mtrr *       list;
        static Slab_cache   cache;

        uint64 size() const
        {
            return 1ULL << (static_cast<mword>(mask) ? bit_scan_forward (static_cast<mword>(mask >> 12)) + 12 :
  2017a1:	41 ba 01 00 00 00    	mov    $0x1,%r10d

    for (Mtrr *mtrr = list; mtrr; mtrr = mtrr->next) {
  2017a7:	4d 85 c0             	test   %r8,%r8
  2017aa:	74 6e                	je     20181a <_ZN4Mtrr7memtypeEyRy+0x12e>

        if (!(mtrr->mask & 0x800))
  2017ac:	4d 8b 48 10          	mov    0x10(%r8),%r9
  2017b0:	41 f7 c1 00 08 00 00 	test   $0x800,%r9d
  2017b7:	74 5c                	je     201815 <_ZN4Mtrr7memtypeEyRy+0x129>
            continue;

        uint64 base = mtrr->base & ~PAGE_MASK;
  2017b9:	49 8b 48 08          	mov    0x8(%r8),%rcx
  2017bd:	48 89 ca             	mov    %rcx,%rdx
  2017c0:	48 81 e2 00 f0 ff ff 	and    $0xfffffffffffff000,%rdx

        if (phys < base)
  2017c7:	48 39 d7             	cmp    %rdx,%rdi
  2017ca:	73 0c                	jae    2017d8 <_ZN4Mtrr7memtypeEyRy+0xec>
  2017cc:	48 39 16             	cmp    %rdx,(%rsi)
  2017cf:	48 0f 46 16          	cmovbe (%rsi),%rdx
            next = min (next, base);
  2017d3:	48 89 16             	mov    %rdx,(%rsi)
  2017d6:	eb 3d                	jmp    201815 <_ZN4Mtrr7memtypeEyRy+0x129>

        else if (((phys ^ mtrr->base) & mtrr->mask) >> PAGE_BITS == 0) {
  2017d8:	48 31 f9             	xor    %rdi,%rcx
  2017db:	4c 21 c9             	and    %r9,%rcx
  2017de:	48 c1 e9 0c          	shr    $0xc,%rcx
  2017e2:	75 31                	jne    201815 <_ZN4Mtrr7memtypeEyRy+0x129>

ALWAYS_INLINE
inline long int bit_scan_forward (mword val)
{
    if (EXPECT_FALSE (!val))
        return -1;
  2017e4:	48 83 c9 ff          	or     $0xffffffffffffffff,%rcx
}

ALWAYS_INLINE
inline long int bit_scan_forward (mword val)
{
    if (EXPECT_FALSE (!val))
  2017e8:	49 c1 e9 0c          	shr    $0xc,%r9
  2017ec:	74 04                	je     2017f2 <_ZN4Mtrr7memtypeEyRy+0x106>
        return -1;

    asm volatile ("bsf %1, %0" : "=r" (val) : "rm" (val));

    return val;
  2017ee:	49 0f bc c9          	bsf    %r9,%rcx
  2017f2:	83 c1 0c             	add    $0xc,%ecx
  2017f5:	4d 89 d3             	mov    %r10,%r11
  2017f8:	49 d3 e3             	shl    %cl,%r11
  2017fb:	48 8b 0e             	mov    (%rsi),%rcx
            next = min (next, base + mtrr->size());
  2017fe:	4c 01 da             	add    %r11,%rdx
  201801:	48 39 ca             	cmp    %rcx,%rdx
  201804:	48 0f 47 d1          	cmova  %rcx,%rdx
  201808:	48 89 16             	mov    %rdx,(%rsi)
            type = min (type, static_cast<unsigned>(mtrr->base) & 0xff);
  20180b:	41 0f b6 50 08       	movzbl 0x8(%r8),%edx
  201810:	39 d0                	cmp    %edx,%eax
  201812:	0f 47 c2             	cmova  %edx,%eax
                                    (phys >>  9 & 0x38)) & 0xff;
    }

    unsigned type = ~0U; next = ~0ULL;

    for (Mtrr *mtrr = list; mtrr; mtrr = mtrr->next) {
  201815:	4d 8b 00             	mov    (%r8),%r8
  201818:	eb 8d                	jmp    2017a7 <_ZN4Mtrr7memtypeEyRy+0xbb>
            next = min (next, base + mtrr->size());
            type = min (type, static_cast<unsigned>(mtrr->base) & 0xff);
        }
    }

    return type == ~0U ? dtype : type;
  20181a:	83 f8 ff             	cmp    $0xffffffff,%eax
  20181d:	0f 44 05 c4 20 f6 80 	cmove  -0x7f09df3c(%rip),%eax        # ffffffff811638e8 <_ZN4Mtrr5dtypeE>
}
  201824:	c3                   	retq   
  201825:	90                   	nop

0000000000201826 <_ZN3PciC1Ejj>:
    protected:
        T *next;

    public:
        ALWAYS_INLINE
        explicit inline List (T *&list) : next (nullptr)
  201826:	48 c7 07 00 00 00 00 	movq   $0x0,(%rdi)
        {
            T **ptr; for (ptr = &list; *ptr; ptr = &(*ptr)->next) ; *ptr = static_cast<T *>(this);
  20182d:	48 8b 05 bc 20 f6 80 	mov    -0x7f09df44(%rip),%rax        # ffffffff811638f0 <_ZN3Pci4listE>
  201834:	48 c7 c1 f0 38 16 81 	mov    $0xffffffff811638f0,%rcx
  20183b:	48 85 c0             	test   %rax,%rax
  20183e:	74 08                	je     201848 <_ZN3PciC1Ejj+0x22>
  201840:	48 89 c1             	mov    %rax,%rcx
  201843:	48 8b 00             	mov    (%rax),%rax
  201846:	eb f3                	jmp    20183b <_ZN3PciC1Ejj+0x15>

struct Pci::quirk_map Pci::map[] INITDATA =
{
};

Pci::Pci (unsigned r, unsigned l) : List<Pci> (list), reg_base (hwdev_addr -= PAGE_SIZE), rid (static_cast<uint16>(r)), lev (static_cast<uint16>(l))
  201848:	50                   	push   %rax
  201849:	48 89 39             	mov    %rdi,(%rcx)
  20184c:	41 b9 13 01 00 00    	mov    $0x113,%r9d
  201852:	66 89 77 10          	mov    %si,0x10(%rdi)
  201856:	48 8b 05 73 03 e2 80 	mov    -0x7f1dfc8d(%rip),%rax        # ffffffff81021bd0 <hwdev_addr>
{
    Pd::kern.Space_mem::insert (Pd::kern.quota, reg_base, 0, Hpt::HPT_NX | Hpt::HPT_G | Hpt::HPT_UC | Hpt::HPT_W | Hpt::HPT_P, cfg_base + (rid << PAGE_BITS));
  20185d:	48 c1 e6 0c          	shl    $0xc,%rsi
  201861:	81 e6 00 f0 ff 0f    	and    $0xffff000,%esi

struct Pci::quirk_map Pci::map[] INITDATA =
{
};

Pci::Pci (unsigned r, unsigned l) : List<Pci> (list), reg_base (hwdev_addr -= PAGE_SIZE), rid (static_cast<uint16>(r)), lev (static_cast<uint16>(l))
  201867:	66 89 57 12          	mov    %dx,0x12(%rdi)
  20186b:	31 c9                	xor    %ecx,%ecx
{
    Pd::kern.Space_mem::insert (Pd::kern.quota, reg_base, 0, Hpt::HPT_NX | Hpt::HPT_G | Hpt::HPT_UC | Hpt::HPT_W | Hpt::HPT_P, cfg_base + (rid << PAGE_BITS));
  20186d:	49 89 f0             	mov    %rsi,%r8
  201870:	4c 03 05 89 20 f6 80 	add    -0x7f09df77(%rip),%r8        # ffffffff81163900 <_ZN3Pci8cfg_baseE>
  201877:	48 c7 c6 a8 3f 16 81 	mov    $0xffffffff81163fa8,%rsi

struct Pci::quirk_map Pci::map[] INITDATA =
{
};

Pci::Pci (unsigned r, unsigned l) : List<Pci> (list), reg_base (hwdev_addr -= PAGE_SIZE), rid (static_cast<uint16>(r)), lev (static_cast<uint16>(l))
  20187e:	48 2d 00 10 00 00    	sub    $0x1000,%rax
  201884:	48 89 47 08          	mov    %rax,0x8(%rdi)
  201888:	6a 00                	pushq  $0x0
  20188a:	48 89 c2             	mov    %rax,%rdx
  20188d:	6a 00                	pushq  $0x0
  20188f:	48 c7 c7 40 3f 16 81 	mov    $0xffffffff81163f40,%rdi
  201896:	48 89 05 33 03 e2 80 	mov    %rax,-0x7f1dfccd(%rip)        # ffffffff81021bd0 <hwdev_addr>
  20189d:	e8 74 14 e1 80       	callq  ffffffff81012d16 <_ZN3PteI3HptmLj4ELj9ELb0EE6updateER5QuotammmmNS1_4TypeEb>
    Pd::kern.Space_mem::insert (Pd::kern.quota, reg_base, 0, Hpt::HPT_NX | Hpt::HPT_G | Hpt::HPT_UC | Hpt::HPT_W | Hpt::HPT_P, cfg_base + (rid << PAGE_BITS));

    for (unsigned i = 0; i < sizeof map / sizeof *map; i++)
        if (read<uint16>(REG_VID) == map[i].vid && read<uint16>(REG_DID) == map[i].did)
            (this->*map[i].func)();
}
  2018a2:	48 83 c4 18          	add    $0x18,%rsp
  2018a6:	c3                   	retq   
  2018a7:	90                   	nop

00000000002018a8 <_ZN3Pci4initEjj>:

void Pci::init (unsigned b, unsigned l)
{
  2018a8:	41 56                	push   %r14
  2018aa:	41 55                	push   %r13
        Pci *p = new (Pd::kern.quota) Pci (r, l);

        unsigned h = p->read<uint8>(REG_HDR);

        if ((h & 0x7f) == 1)
            init (p->read<uint8>(REG_SBUSN), l + 1);
  2018ac:	44 8d 6e 01          	lea    0x1(%rsi),%r13d
        if (read<uint16>(REG_VID) == map[i].vid && read<uint16>(REG_DID) == map[i].did)
            (this->*map[i].func)();
}

void Pci::init (unsigned b, unsigned l)
{
  2018b0:	41 54                	push   %r12
  2018b2:	55                   	push   %rbp
    for (unsigned r = b << 8; r < (b + 1) << 8; r++) {
  2018b3:	8d 6f 01             	lea    0x1(%rdi),%ebp
        if (read<uint16>(REG_VID) == map[i].vid && read<uint16>(REG_DID) == map[i].did)
            (this->*map[i].func)();
}

void Pci::init (unsigned b, unsigned l)
{
  2018b6:	53                   	push   %rbx
    for (unsigned r = b << 8; r < (b + 1) << 8; r++) {
  2018b7:	89 fb                	mov    %edi,%ebx
        if (read<uint16>(REG_VID) == map[i].vid && read<uint16>(REG_DID) == map[i].did)
            (this->*map[i].func)();
}

void Pci::init (unsigned b, unsigned l)
{
  2018b9:	41 89 f4             	mov    %esi,%r12d
    for (unsigned r = b << 8; r < (b + 1) << 8; r++) {
  2018bc:	c1 e3 08             	shl    $0x8,%ebx
  2018bf:	c1 e5 08             	shl    $0x8,%ebp
  2018c2:	39 eb                	cmp    %ebp,%ebx
  2018c4:	73 73                	jae    201939 <_ZN3Pci4initEjj+0x91>

        if (*static_cast<uint32 *>(Hpt::remap (Pd::kern.quota, cfg_base + (r << PAGE_BITS))) == ~0U)
  2018c6:	89 d8                	mov    %ebx,%eax
  2018c8:	48 c7 c7 a8 3f 16 81 	mov    $0xffffffff81163fa8,%rdi
  2018cf:	c1 e0 0c             	shl    $0xc,%eax
  2018d2:	48 03 05 27 20 f6 80 	add    -0x7f09dfd9(%rip),%rax        # ffffffff81163900 <_ZN3Pci8cfg_baseE>
  2018d9:	48 89 c6             	mov    %rax,%rsi
  2018dc:	e8 31 68 e0 80       	callq  ffffffff81008112 <_ZN3Hpt5remapER5Quotam>
  2018e1:	83 38 ff             	cmpl   $0xffffffff,(%rax)
  2018e4:	74 4f                	je     201935 <_ZN3Pci4initEjj+0x8d>
    public:
        INIT
        Pci (unsigned, unsigned);

        ALWAYS_INLINE
        static inline void *operator new (size_t, Quota &quota) { return cache.alloc(quota); }
  2018e6:	48 c7 c6 a8 3f 16 81 	mov    $0xffffffff81163fa8,%rsi
  2018ed:	48 c7 c7 10 39 16 81 	mov    $0xffffffff81163910,%rdi
  2018f4:	e8 35 40 e1 80       	callq  ffffffff8101592e <_ZN10Slab_cache5allocER5Quota>
            continue;

        Pci *p = new (Pd::kern.quota) Pci (r, l);
  2018f9:	44 89 e2             	mov    %r12d,%edx
  2018fc:	49 89 c6             	mov    %rax,%r14
  2018ff:	48 89 c7             	mov    %rax,%rdi
  201902:	89 de                	mov    %ebx,%esi
  201904:	e8 1d ff ff ff       	callq  201826 <_ZN3PciC1Ejj>
  201909:	49 8b 46 08          	mov    0x8(%r14),%rax
            REG_MAX         = 0xfff,
        };

        template <typename T>
        ALWAYS_INLINE
        inline unsigned read (Register r) { return *reinterpret_cast<T volatile *>(reg_base + r); }
  20190d:	44 8a 70 0e          	mov    0xe(%rax),%r14b

        unsigned h = p->read<uint8>(REG_HDR);

        if ((h & 0x7f) == 1)
  201911:	44 88 f2             	mov    %r14b,%dl
  201914:	83 e2 7f             	and    $0x7f,%edx
  201917:	fe ca                	dec    %dl
  201919:	75 0c                	jne    201927 <_ZN3Pci4initEjj+0x7f>
  20191b:	0f b6 78 19          	movzbl 0x19(%rax),%edi
            init (p->read<uint8>(REG_SBUSN), l + 1);
  20191f:	44 89 ee             	mov    %r13d,%esi
  201922:	e8 81 ff ff ff       	callq  2018a8 <_ZN3Pci4initEjj>

        if (!(r & 0x7) && !(h & 0x80))
  201927:	f6 c3 07             	test   $0x7,%bl
  20192a:	75 09                	jne    201935 <_ZN3Pci4initEjj+0x8d>
            r += 7;
  20192c:	8d 43 07             	lea    0x7(%rbx),%eax
  20192f:	45 84 f6             	test   %r14b,%r14b
  201932:	0f 49 d8             	cmovns %eax,%ebx
            (this->*map[i].func)();
}

void Pci::init (unsigned b, unsigned l)
{
    for (unsigned r = b << 8; r < (b + 1) << 8; r++) {
  201935:	ff c3                	inc    %ebx
  201937:	eb 89                	jmp    2018c2 <_ZN3Pci4initEjj+0x1a>
            init (p->read<uint8>(REG_SBUSN), l + 1);

        if (!(r & 0x7) && !(h & 0x80))
            r += 7;
    }
}
  201939:	5b                   	pop    %rbx
  20193a:	5d                   	pop    %rbp
  20193b:	41 5c                	pop    %r12
  20193d:	41 5d                	pop    %r13
  20193f:	41 5e                	pop    %r14
  201941:	c3                   	retq   

0000000000201942 <_ZN2PdC1EPS_>:

INIT_PRIORITY (PRIO_BUDDY)
ALIGNED(32) Pd Pd::kern (&Pd::kern);
ALIGNED(32) Pd Pd::root (&Pd::root, NUM_EXC, 0x1f);

Pd::Pd (Pd *own) : Kobject (PD, static_cast<Space_obj *>(own))
  201942:	48 8d 86 f8 02 00 00 	lea    0x2f8(%rsi),%rax
  201949:	41 54                	push   %r12
  20194b:	48 85 f6             	test   %rsi,%rsi
  20194e:	55                   	push   %rbp
  20194f:	48 89 f5             	mov    %rsi,%rbp
  201952:	be 00 00 00 00       	mov    $0x0,%esi
  201957:	53                   	push   %rbx
  201958:	48 0f 45 f0          	cmovne %rax,%rsi
            PT,
            SM,
            INVALID,
        };

        explicit Kobject (Type t, Space *s, mword b = 0, mword a = 0, void (*f)(Rcu_elem *) = free, void (*pref)(Rcu_elem *) = nullptr ) : Mdb (s, reinterpret_cast<mword>(this), b, a, f, pref), objtype (t) {}
  20195c:	50                   	push   %rax
  20195d:	6a 00                	pushq  $0x0
  20195f:	31 c9                	xor    %ecx,%ecx
  201961:	48 89 fa             	mov    %rdi,%rdx
  201964:	49 c7 c1 ae 34 00 81 	mov    $0xffffffff810034ae,%r9
  20196b:	45 31 c0             	xor    %r8d,%r8d
  20196e:	48 89 fb             	mov    %rdi,%rbx
  201971:	e8 36 1f e0 80       	callq  ffffffff810038ac <_ZN3MdbC1EP5SpacemmmPFvP8Rcu_elemES5_>
            bool res = !Atomic::test_set_bit (did_c[0], NO_PCID);
            assert (res);
        }

        ALWAYS_INLINE
        inline Space_mem() : cpus(0), htlb(~0UL), gtlb(~0UL)
  201976:	59                   	pop    %rcx
  201977:	5e                   	pop    %rsi
  201978:	48 8d 93 a0 00 00 00 	lea    0xa0(%rbx),%rdx
  20197f:	c6 83 88 00 00 00 00 	movb   $0x0,0x88(%rbx)
  201986:	66 c7 83 8a 00 00 00 	movw   $0x0,0x8a(%rbx)
  20198d:	00 00 
    private:
        uint32 ref;

    public:
        ALWAYS_INLINE
        inline Refex() : ref (1) {}
  20198f:	c7 83 8c 00 00 00 01 	movl   $0x1,0x8c(%rbx)
  201996:	00 00 00 
  201999:	66 c7 83 90 00 00 00 	movw   $0x0,0x90(%rbx)
  2019a0:	00 00 
  2019a2:	31 c0                	xor    %eax,%eax
    private:
        Spinlock    lock;
        Avl *       tree;

    public:
        Space() : tree (nullptr) {}
  2019a4:	48 c7 83 98 00 00 00 	movq   $0x0,0x98(%rbx)
  2019ab:	00 00 00 00 
  2019af:	48 c7 04 02 00 00 00 	movq   $0x0,(%rdx,%rax,1)
  2019b6:	00 
  2019b7:	48 83 c0 08          	add    $0x8,%rax
  2019bb:	48 3d 00 02 00 00    	cmp    $0x200,%rax
  2019c1:	75 ec                	jne    2019af <_ZN2PdC1EPS_+0x6d>
        {
            for (mword i = ACCESS_ONCE(did_f), j = 0; j <= LAST_PCID; i++, j++)
  2019c3:	48 8b 05 e6 26 f6 80 	mov    -0x7f09d91a(%rip),%rax        # ffffffff811640b0 <_ZN9Space_mem5did_fE>
  2019ca:	48 c7 83 a0 02 00 00 	movq   $0x0,0x2a0(%rbx)
  2019d1:	00 00 00 00 
  2019d5:	31 f6                	xor    %esi,%esi
  2019d7:	48 c7 83 a8 02 00 00 	movq   $0x0,0x2a8(%rbx)
  2019de:	00 00 00 00 
    private:
        mword val;

    public:
        ALWAYS_INLINE
        inline explicit Cpuset(mword v) : val (v) {}
  2019e2:	48 c7 83 c0 02 00 00 	movq   $0x0,0x2c0(%rbx)
  2019e9:	00 00 00 00 
  2019ed:	48 c7 83 c8 02 00 00 	movq   $0xffffffffffffffff,0x2c8(%rbx)
  2019f4:	ff ff ff ff 
  2019f8:	48 c7 83 d0 02 00 00 	movq   $0xffffffffffffffff,0x2d0(%rbx)
  2019ff:	ff ff ff ff 
            {
                i %= (LAST_PCID + 1);
  201a03:	83 e0 3f             	and    $0x3f,%eax

                if (ACCESS_ONCE(did_c[i]) == ~0UL)
  201a06:	48 8b 14 c5 c0 40 16 	mov    -0x7ee9bf40(,%rax,8),%rdx
  201a0d:	81 
  201a0e:	48 ff c2             	inc    %rdx
  201a11:	74 63                	je     201a76 <_ZN2PdC1EPS_+0x134>
}

ALWAYS_INLINE
inline long int bit_scan_forward (mword val)
{
    if (EXPECT_FALSE (!val))
  201a13:	48 8b 0c c5 c0 40 16 	mov    -0x7ee9bf40(,%rax,8),%rcx
  201a1a:	81 
                    continue;

                long b = bit_scan_forward (~did_c[i]);
                if (b == -1) b = 0;
  201a1b:	31 d2                	xor    %edx,%edx
  201a1d:	48 83 f1 ff          	xor    $0xffffffffffffffff,%rcx
  201a21:	74 0c                	je     201a2f <_ZN2PdC1EPS_+0xed>
        return -1;

    asm volatile ("bsf %1, %0" : "=r" (val) : "rm" (val));
  201a23:	48 0f bc c9          	bsf    %rcx,%rcx
  201a27:	48 83 f9 ff          	cmp    $0xffffffffffffffff,%rcx
  201a2b:	48 0f 45 d1          	cmovne %rcx,%rdx
        template <typename T>
        ALWAYS_INLINE
        static inline bool test_set_bit (T &val, unsigned long bit)
        {
            bool ret;
            asm volatile ("lock; bts%z1 %2, %1; setc %0" : "=q" (ret), "+m" (val) : "ir" (bit) : "cc");
  201a2f:	f0 48 0f ab 14 c5 c0 	lock bts %rdx,-0x7ee9bf40(,%rax,8)
  201a36:	40 16 81 
  201a39:	0f 92 c1             	setb   %cl

                if (Atomic::test_set_bit (did_c[i], b)) {
  201a3c:	84 c9                	test   %cl,%cl
  201a3e:	74 08                	je     201a48 <_ZN2PdC1EPS_+0x106>
                    j--;
  201a40:	48 ff ce             	dec    %rsi
                    i--;
  201a43:	48 ff c8             	dec    %rax
  201a46:	eb 2e                	jmp    201a76 <_ZN2PdC1EPS_+0x134>
                    continue;
                }

                did = i * sizeof(did_c[0]) * 8 + b;
  201a48:	48 89 c1             	mov    %rax,%rcx
  201a4b:	48 c1 e1 06          	shl    $0x6,%rcx
  201a4f:	48 01 ca             	add    %rcx,%rdx

                if (did_c[i] != ~0UL && did_f != i)
  201a52:	48 83 3c c5 c0 40 16 	cmpq   $0xffffffffffffffff,-0x7ee9bf40(,%rax,8)
  201a59:	81 ff 
                    j--;
                    i--;
                    continue;
                }

                did = i * sizeof(did_c[0]) * 8 + b;
  201a5b:	48 89 93 b8 02 00 00 	mov    %rdx,0x2b8(%rbx)

                if (did_c[i] != ~0UL && did_f != i)
  201a62:	74 29                	je     201a8d <_ZN2PdC1EPS_+0x14b>
  201a64:	48 39 05 45 26 f6 80 	cmp    %rax,-0x7f09d9bb(%rip)        # ffffffff811640b0 <_ZN9Space_mem5did_fE>
  201a6b:	74 20                	je     201a8d <_ZN2PdC1EPS_+0x14b>
                    did_f = i;
  201a6d:	48 89 05 3c 26 f6 80 	mov    %rax,-0x7f09d9c4(%rip)        # ffffffff811640b0 <_ZN9Space_mem5did_fE>
  201a74:	eb 17                	jmp    201a8d <_ZN2PdC1EPS_+0x14b>
        }

        ALWAYS_INLINE
        inline Space_mem() : cpus(0), htlb(~0UL), gtlb(~0UL)
        {
            for (mword i = ACCESS_ONCE(did_f), j = 0; j <= LAST_PCID; i++, j++)
  201a76:	48 ff c6             	inc    %rsi
  201a79:	48 ff c0             	inc    %rax
  201a7c:	48 83 fe 3f          	cmp    $0x3f,%rsi
  201a80:	76 81                	jbe    201a03 <_ZN2PdC1EPS_+0xc1>
                    did_f = i;

                return;
            }

            did = NO_PCID;
  201a82:	48 c7 83 b8 02 00 00 	movq   $0x2,0x2b8(%rbx)
  201a89:	02 00 00 00 
  201a8d:	48 8d bb 08 03 00 00 	lea    0x308(%rbx),%rdi
{
    hpt = Hptp (reinterpret_cast<mword>(&PDBR));

    Mtrr::init();

    Space_mem::insert_root (own->quota, 0, reinterpret_cast<mword>(&LINK_P));
  201a94:	4c 8d a3 90 00 00 00 	lea    0x90(%rbx),%r12
  201a9b:	66 c7 83 d8 02 00 00 	movw   $0x0,0x2d8(%rbx)
  201aa2:	00 00 
  201aa4:	48 c7 83 e0 02 00 00 	movq   $0x0,0x2e0(%rbx)
  201aab:	00 00 00 00 

        void update (Quota &quota, bool, mword, mword);

    public:

        Space_pio() : hbmp(0), gbmp(0) {}
  201aaf:	48 c7 83 e8 02 00 00 	movq   $0x0,0x2e8(%rbx)
  201ab6:	00 00 00 00 
  201aba:	48 81 c5 08 03 00 00 	add    $0x308,%rbp
  201ac1:	48 c7 83 f0 02 00 00 	movq   $0x0,0x2f0(%rbx)
  201ac8:	00 00 00 00 
  201acc:	66 c7 83 f8 02 00 00 	movw   $0x0,0x2f8(%rbx)
  201ad3:	00 00 
  201ad5:	48 c7 83 00 03 00 00 	movq   $0x0,0x300(%rbx)
  201adc:	00 00 00 00 

INIT_PRIORITY (PRIO_BUDDY)
ALIGNED(32) Pd Pd::kern (&Pd::kern);
ALIGNED(32) Pd Pd::root (&Pd::root, NUM_EXC, 0x1f);

Pd::Pd (Pd *own) : Kobject (PD, static_cast<Space_obj *>(own))
  201ae0:	e8 0d e3 e0 80       	callq  ffffffff8100fdf2 <_ZN5QuotaC1Ev>
{
    hpt = Hptp (reinterpret_cast<mword>(&PDBR));
  201ae5:	48 c7 83 a0 02 00 00 	movq   $0x568000,0x2a0(%rbx)
  201aec:	00 80 56 00 

    Mtrr::init();
  201af0:	e8 49 fb ff ff       	callq  20163e <_ZN4Mtrr4initEv>

    Space_mem::insert_root (own->quota, 0, reinterpret_cast<mword>(&LINK_P));
  201af5:	48 89 ee             	mov    %rbp,%rsi
  201af8:	4c 89 e7             	mov    %r12,%rdi
  201afb:	41 b8 07 00 00 00    	mov    $0x7,%r8d
  201b01:	48 c7 c1 00 00 40 00 	mov    $0x400000,%rcx
  201b08:	31 d2                	xor    %edx,%edx
  201b0a:	e8 65 00 00 00       	callq  201b74 <_ZN9Space_mem11insert_rootER5Quotayym>
    Space_mem::insert_root (own->quota, reinterpret_cast<mword>(&LINK_E), 1ULL << 52);
  201b0f:	48 89 ee             	mov    %rbp,%rsi
  201b12:	4c 89 e7             	mov    %r12,%rdi
  201b15:	41 b8 07 00 00 00    	mov    $0x7,%r8d
  201b1b:	48 b9 00 00 00 00 00 	movabs $0x10000000000000,%rcx
  201b22:	00 10 00 
  201b25:	48 c7 c2 00 00 80 08 	mov    $0x8800000,%rdx
  201b2c:	e8 43 00 00 00       	callq  201b74 <_ZN9Space_mem11insert_rootER5Quotayym>

    // HIP
    Space_mem::insert_root (own->quota, reinterpret_cast<mword>(&FRAME_H), reinterpret_cast<mword>(&FRAME_H) + PAGE_SIZE, 1);
  201b31:	48 89 ee             	mov    %rbp,%rsi
  201b34:	4c 89 e7             	mov    %r12,%rdi
  201b37:	41 b8 01 00 00 00    	mov    $0x1,%r8d
  201b3d:	48 c7 c1 00 80 56 00 	mov    $0x568000,%rcx
  201b44:	48 c7 c2 00 70 56 00 	mov    $0x567000,%rdx
  201b4b:	e8 24 00 00 00       	callq  201b74 <_ZN9Space_mem11insert_rootER5Quotayym>

    // I/O Ports
    Space_pio::addreg (own->quota, 0, 1UL << 16, 7);
  201b50:	48 8d bb d8 02 00 00 	lea    0x2d8(%rbx),%rdi
  201b57:	48 89 ee             	mov    %rbp,%rsi
  201b5a:	45 31 c9             	xor    %r9d,%r9d
}
  201b5d:	5b                   	pop    %rbx
  201b5e:	5d                   	pop    %rbp
  201b5f:	41 5c                	pop    %r12

    // HIP
    Space_mem::insert_root (own->quota, reinterpret_cast<mword>(&FRAME_H), reinterpret_cast<mword>(&FRAME_H) + PAGE_SIZE, 1);

    // I/O Ports
    Space_pio::addreg (own->quota, 0, 1UL << 16, 7);
  201b61:	41 b8 07 00 00 00    	mov    $0x7,%r8d
  201b67:	b9 00 00 01 00       	mov    $0x10000,%ecx
  201b6c:	31 d2                	xor    %edx,%edx
  201b6e:	e9 e3 12 e0 80       	jmpq   ffffffff81002e56 <_ZN5Space6addregER5Quotammmm>
  201b73:	90                   	nop

0000000000201b74 <_ZN9Space_mem11insert_rootER5Quotayym>:
            asm volatile ("cli" : : : "memory");
    }
}

void Space_mem::insert_root (Quota &quota, uint64 s, uint64 e, mword a)
{
  201b74:	41 57                	push   %r15
  201b76:	41 56                	push   %r14
  201b78:	49 89 d6             	mov    %rdx,%r14
  201b7b:	41 55                	push   %r13
  201b7d:	41 54                	push   %r12
  201b7f:	4d 89 c5             	mov    %r8,%r13
  201b82:	55                   	push   %rbp
  201b83:	53                   	push   %rbx
  201b84:	48 89 fd             	mov    %rdi,%rbp
  201b87:	49 89 f4             	mov    %rsi,%r12
  201b8a:	48 89 cb             	mov    %rcx,%rbx
  201b8d:	48 83 ec 18          	sub    $0x18,%rsp
    for (uint64 p = s; p < e; s = p) {
  201b91:	48 89 14 24          	mov    %rdx,(%rsp)
  201b95:	48 39 1c 24          	cmp    %rbx,(%rsp)
  201b99:	73 68                	jae    201c03 <_ZN9Space_mem11insert_rootER5Quotayym+0x8f>

        unsigned t = Mtrr::memtype (s, p);
  201b9b:	48 89 e6             	mov    %rsp,%rsi
  201b9e:	4c 89 f7             	mov    %r14,%rdi
  201ba1:	e8 46 fb ff ff       	callq  2016ec <_ZN4Mtrr7memtypeEyRy>
  201ba6:	41 89 c7             	mov    %eax,%r15d

        for (uint64 n; p < e; p = n)
  201ba9:	48 8b 3c 24          	mov    (%rsp),%rdi
  201bad:	48 39 df             	cmp    %rbx,%rdi
  201bb0:	73 0f                	jae    201bc1 <_ZN9Space_mem11insert_rootER5Quotayym+0x4d>
            if (Mtrr::memtype (p, n) != t)
  201bb2:	48 8d 74 24 08       	lea    0x8(%rsp),%rsi
  201bb7:	e8 30 fb ff ff       	callq  2016ec <_ZN4Mtrr7memtypeEyRy>
  201bbc:	44 39 f8             	cmp    %r15d,%eax
  201bbf:	74 37                	je     201bf8 <_ZN9Space_mem11insert_rootER5Quotayym+0x84>
  201bc1:	4c 8b 14 24          	mov    (%rsp),%r10
            break;

        if ((p = min (p, e)) > ~0UL)
            p = static_cast<uint64>(~0UL) + 1;

        addreg (quota, static_cast<mword>(s >> PAGE_BITS), static_cast<mword>(p - s) >> PAGE_BITS, a, t);
  201bc5:	4c 89 f2             	mov    %r14,%rdx
  201bc8:	45 89 f9             	mov    %r15d,%r9d
  201bcb:	4d 89 e8             	mov    %r13,%r8
  201bce:	4c 89 e6             	mov    %r12,%rsi
  201bd1:	48 89 ef             	mov    %rbp,%rdi
  201bd4:	4c 39 d3             	cmp    %r10,%rbx
  201bd7:	4c 0f 46 d3          	cmovbe %rbx,%r10
  201bdb:	48 c1 ea 0c          	shr    $0xc,%rdx
  201bdf:	4c 89 d1             	mov    %r10,%rcx
                break;

        if (s > ~0UL)
            break;

        if ((p = min (p, e)) > ~0UL)
  201be2:	4c 89 14 24          	mov    %r10,(%rsp)
            p = static_cast<uint64>(~0UL) + 1;

        addreg (quota, static_cast<mword>(s >> PAGE_BITS), static_cast<mword>(p - s) >> PAGE_BITS, a, t);
  201be6:	4c 29 f1             	sub    %r14,%rcx
  201be9:	48 c1 e9 0c          	shr    $0xc,%rcx
  201bed:	e8 64 12 e0 80       	callq  ffffffff81002e56 <_ZN5Space6addregER5Quotammmm>
    }
}

void Space_mem::insert_root (Quota &quota, uint64 s, uint64 e, mword a)
{
    for (uint64 p = s; p < e; s = p) {
  201bf2:	4c 8b 34 24          	mov    (%rsp),%r14
  201bf6:	eb 9d                	jmp    201b95 <_ZN9Space_mem11insert_rootER5Quotayym+0x21>

        unsigned t = Mtrr::memtype (s, p);

        for (uint64 n; p < e; p = n)
  201bf8:	48 8b 44 24 08       	mov    0x8(%rsp),%rax
  201bfd:	48 89 04 24          	mov    %rax,(%rsp)
  201c01:	eb a6                	jmp    201ba9 <_ZN9Space_mem11insert_rootER5Quotayym+0x35>
        if ((p = min (p, e)) > ~0UL)
            p = static_cast<uint64>(~0UL) + 1;

        addreg (quota, static_cast<mword>(s >> PAGE_BITS), static_cast<mword>(p - s) >> PAGE_BITS, a, t);
    }
}
  201c03:	48 83 c4 18          	add    $0x18,%rsp
  201c07:	5b                   	pop    %rbx
  201c08:	5d                   	pop    %rbp
  201c09:	41 5c                	pop    %r12
  201c0b:	41 5d                	pop    %r13
  201c0d:	41 5e                	pop    %r14
  201c0f:	41 5f                	pop    %r15
  201c11:	c3                   	retq   
  201c12:	90                   	nop
  201c13:	90                   	nop
  201c14:	90                   	nop
  201c15:	90                   	nop
  201c16:	90                   	nop
  201c17:	90                   	nop

0000000000201c18 <__boot_header>:
  201c18:	02 b0 ad 1b 00 00    	add    0x1bad(%rax),%dh
  201c1e:	00 00                	add    %al,(%rax)
  201c20:	fe 4f 52             	decb   0x52(%rdi)
  201c23:	e4 0f                	in     $0xf,%al
  201c25:	1f                   	(bad)  
  201c26:	40 00 00             	add    %al,(%rax)

0000000000201c28 <__boot_gdt>:
  201c28:	00 00                	add    %al,(%rax)
  201c2a:	27                   	(bad)  
  201c2b:	00 28                	add    %ch,(%rax)
  201c2d:	1c 20                	sbb    $0x20,%al
  201c2f:	00 00                	add    %al,(%rax)
  201c31:	00 00                	add    %al,(%rax)
  201c33:	00 00                	add    %al,(%rax)
  201c35:	9b                   	fwait
  201c36:	a0 00 00 00 00 00 00 	movabs 0xa093000000000000,%al
  201c3d:	93 a0 
  201c3f:	00 00                	add    %al,(%rax)
  201c41:	00 00                	add    %al,(%rax)
  201c43:	00 00                	add    %al,(%rax)
  201c45:	fb                   	sti    
  201c46:	a0 00 00 00 00 00 00 	movabs 0xa0f3000000000000,%al
  201c4d:	f3 a0 
	...

0000000000201c50 <__boot_gdt__>:
/*
 * AP Startup Code
 */
.code16

__start_ap:             INIT_PAGING
  201c50:	66 b9 80 00          	mov    $0x80,%cx
  201c54:	00 c0                	add    %al,%al
  201c56:	0f 32                	rdmsr  
  201c58:	66 0d 01 01          	or     $0x101,%ax
  201c5c:	00 00                	add    %al,(%rax)
  201c5e:	0f 30                	wrmsr  
  201c60:	66 ba b8 06          	mov    $0x6b8,%dx
  201c64:	00 00                	add    %al,(%rax)
  201c66:	0f 22 e2             	mov    %rdx,%cr4
  201c69:	66 ba 00 80          	mov    $0x8000,%dx
  201c6d:	56                   	push   %rsi
  201c6e:	00 0f                	add    %cl,(%rdi)
  201c70:	22 da                	and    %dl,%bl
  201c72:	66 ba 2b 00          	mov    $0x2b,%dx
  201c76:	01 80 0f 22 c2 2e    	add    %eax,0x2ec2220f(%rax)
                        lgdtl   %cs:__gdt_desc - __start_ap
  201c7c:	66                   	data16
  201c7d:	0f 01 16             	lgdt   (%rsi)
  201c80:	3a 00                	cmp    (%rax),%al
                        ljmpl   $SEL_KERN_CODE, $__start_all
  201c82:	66                   	data16
  201c83:	ea                   	(bad)  
  201c84:	3b 1d 20 00 08 00    	cmp    0x80020(%rip),%ebx        # 281caa <LOAD_E+0x7ecaa>

0000000000201c8a <__gdt_desc>:
  201c8a:	27                   	(bad)  
  201c8b:	00 28                	add    %ch,(%rax)
  201c8d:	1c 20                	sbb    $0x20,%al
	...

0000000000201c90 <__start_bsp>:
/*
 * BSP Startup Code
 */
.code32

__start_bsp:            mov     $(__start_bsp - __start_ap), %ecx
  201c90:	b9 40 00 00 00       	mov    $0x40,%ecx
                        mov     $__start_ap, %esi
  201c95:	be 50 1c 20 00       	mov    $0x201c50,%esi
                        mov     $0x1000, %edi
  201c9a:	bf 00 10 00 00       	mov    $0x1000,%edi
                        rep     movsb
  201c9f:	f3 a4                	rep movsb %ds:(%rsi),%es:(%rdi)
#ifdef __x86_64__
                        mov     $(LVL3L + 0x27), %ecx
  201ca1:	b9 27 90 56 00       	mov    $0x569027,%ecx
                        mov     %ecx, LVL4  + SIZE * (LOAD_ADDR >> (3 * PTE_BPL + PAGE_BITS) & ((1 << PTE_BPL) - 1))
  201ca6:	89 0d 00 80 56 00    	mov    %ecx,0x568000(%rip)        # 769cac <LVL2H+0x1fdcac>
                        mov     $(LVL2L + 0x27), %ecx
  201cac:	b9 27 b0 56 00       	mov    $0x56b027,%ecx
                        mov     %ecx, LVL3L + SIZE * (LOAD_ADDR >> (2 * PTE_BPL + PAGE_BITS) & ((1 << PTE_BPL) - 1))
  201cb1:	89 0d 00 90 56 00    	mov    %ecx,0x569000(%rip)        # 76acb7 <LVL2H+0x1fecb7>

                        mov     $(LVL3H + 0x27), %ecx
  201cb7:	b9 27 a0 56 00       	mov    $0x56a027,%ecx
                        mov     %ecx, LVL4  + SIZE * (LINK_ADDR >> (3 * PTE_BPL + PAGE_BITS) & ((1 << PTE_BPL) - 1))
  201cbc:	89 0d f8 8f 56 00    	mov    %ecx,0x568ff8(%rip)        # 76acba <LVL2H+0x1fecba>
                        mov     $(LVL2H + 0x27), %ecx
  201cc2:	b9 27 c0 56 00       	mov    $0x56c027,%ecx
                        mov     %ecx, LVL3H + SIZE * (LINK_ADDR >> (2 * PTE_BPL + PAGE_BITS) & ((1 << PTE_BPL) - 1))
  201cc7:	89 0d f0 af 56 00    	mov    %ecx,0x56aff0(%rip)        # 76ccbd <LVL2H+0x200cbd>
#endif
                        mov     $0xe3, %ecx
  201ccd:	b9 e3 00 00 00       	mov    $0xe3,%ecx
                        mov     $LVL2L, %edi
  201cd2:	bf 00 b0 56 00       	mov    $0x56b000,%edi
1:                      mov     %ecx, (%edi)
  201cd7:	89 0f                	mov    %ecx,(%rdi)
                        add     $(1 << (PTE_BPL + PAGE_BITS)), %ecx
  201cd9:	81 c1 00 00 20 00    	add    $0x200000,%ecx
                        add     $SIZE, %edi
  201cdf:	83 c7 08             	add    $0x8,%edi
                        cmp     $LOAD_E, %ecx
  201ce2:	81 f9 00 30 20 00    	cmp    $0x203000,%ecx
                        jb      1b
  201ce8:	72 ed                	jb     201cd7 <__start_bsp+0x47>

                        mov     $(LINK_P + 0x1e3), %ecx
  201cea:	b9 e3 01 40 00       	mov    $0x4001e3,%ecx
                        mov     $(LVL2H + SIZE * (LINK_ADDR >> (PTE_BPL + PAGE_BITS) & ((1 << PTE_BPL) - 1))), %edi
  201cef:	bf 40 c0 56 00       	mov    $0x56c040,%edi
1:                      mov     %ecx, (%edi)
  201cf4:	89 0f                	mov    %ecx,(%rdi)
                        add     $(1 << (PTE_BPL + PAGE_BITS)), %ecx
  201cf6:	81 c1 00 00 20 00    	add    $0x200000,%ecx
                        add     $SIZE, %edi
  201cfc:	83 c7 08             	add    $0x8,%edi
                        cmp     $LINK_E, %ecx
  201cff:	81 f9 00 00 80 08    	cmp    $0x8800000,%ecx
                        jb      1b
  201d05:	72 ed                	jb     201cf4 <__start_bsp+0x64>

                        INIT_PAGING
  201d07:	b9 80 00 00 c0       	mov    $0xc0000080,%ecx
  201d0c:	0f 32                	rdmsr  
  201d0e:	0d 01 01 00 00       	or     $0x101,%eax
  201d13:	0f 30                	wrmsr  
  201d15:	ba b8 06 00 00       	mov    $0x6b8,%edx
  201d1a:	0f 22 e2             	mov    %rdx,%cr4
  201d1d:	ba 00 80 56 00       	mov    $0x568000,%edx
  201d22:	0f 22 da             	mov    %rdx,%cr3
  201d25:	ba 2b 00 01 80       	mov    $0x8001002b,%edx
  201d2a:	0f 22 c2             	mov    %rdx,%cr0
                        lgdt    __boot_gdt + 2
  201d2d:	0f 01 15 2a 1c 20 00 	lgdt   0x201c2a(%rip)        # 40395e <LINK_P+0x395e>
                        ljmp    $SEL_KERN_CODE, $__start_all
  201d34:	ea                   	(bad)  
  201d35:	3b 1d 20 00 08 00    	cmp    0x80020(%rip),%ebx        # 281d5b <LOAD_E+0x7ed5b>

0000000000201d3b <__start_all>:
 */
#ifdef __x86_64__
.code64
#endif

__start_all:            INIT_STATE
  201d3b:	b9 10 00 00 00       	mov    $0x10,%ecx
  201d40:	8e d1                	mov    %ecx,%ss
  201d42:	b9 23 00 00 00       	mov    $0x23,%ecx
  201d47:	8e d9                	mov    %ecx,%ds
  201d49:	8e c1                	mov    %ecx,%es
  201d4b:	8e e1                	mov    %ecx,%fs
  201d4d:	8e e9                	mov    %ecx,%gs
  201d4f:	bc 00 30 20 00       	mov    $0x203000,%esp
                        test    %REG(bx), %REG(bx)
  201d54:	48 85 db             	test   %rbx,%rbx
                        je      2f
  201d57:	74 0c                	je     201d65 <__start_all+0x2a>

                        mov     %REG(bx), %ARG_1
  201d59:	48 89 df             	mov    %rbx,%rdi
                        call    init
  201d5c:	e8 3c f7 ff ff       	callq  20149d <init>
                        jmp     3f
  201d61:	eb 0f                	jmp    201d72 <__start_all+0x37>

1:                      pause
  201d63:	f3 90                	pause  
2:                      xchg    %REG(bx), boot_lock
  201d65:	48 87 1c 25 48 20 16 	xchg   %rbx,0xffffffff81162048
  201d6c:	81 
                        test    %REG(bx), %REG(bx)
  201d6d:	48 85 db             	test   %rbx,%rbx
                        je      1b
  201d70:	74 f1                	je     201d63 <__start_all+0x28>

3:                      call    kern_ptab_setup
  201d72:	e8 55 f6 ff ff       	callq  2013cc <kern_ptab_setup>
                        jmp     1f
  201d77:	e9 d7 50 e1 80       	jmpq   ffffffff81016e53 <_ZN9Space_pio10page_faultEmm+0x93>
  201d7c:	90                   	nop
  201d7d:	90                   	nop
  201d7e:	90                   	nop
  201d7f:	90                   	nop

0000000000201d80 <_ZN15Acpi_table_rsdt3mapE>:
  201d80:	41 50 49 43 00 1d 02 81 ff ff ff ff 44 4d 41 52     APIC........DMAR
  201d90:	18 1d 02 81 ff ff ff ff 46 41 43 50 10 1d 02 81     ........FACP....
  201da0:	ff ff ff ff 48 50 45 54 08 1d 02 81 ff ff ff ff     ....HPET........
  201db0:	4d 43 46 47 f8 1c 02 81 ff ff ff ff 90 90 90 90     MCFG............

0000000000201dc0 <_ZN7Cmdline3mapE>:
  201dc0:	0c d7 01 81 ff ff ff ff a0 1d 02 81 ff ff ff ff     ................
  201dd0:	12 d7 01 81 ff ff ff ff 9f 1d 02 81 ff ff ff ff     ................
  201de0:	17 d7 01 81 ff ff ff ff 9e 1d 02 81 ff ff ff ff     ................
  201df0:	1e d7 01 81 ff ff ff ff 9d 1d 02 81 ff ff ff ff     ................
  201e00:	26 d7 01 81 ff ff ff ff 9c 1d 02 81 ff ff ff ff     &...............
  201e10:	2b d7 01 81 ff ff ff ff 9b 1d 02 81 ff ff ff ff     +...............
  201e20:	30 d7 01 81 ff ff ff ff 9a 1d 02 81 ff ff ff ff     0...............
  201e30:	37 d7 01 81 ff ff ff ff 99 1d 02 81 ff ff ff ff     7...............
  201e40:	3d d7 01 81 ff ff ff ff 98 1d 02 81 ff ff ff ff     =...............

Disassembly of section .text:

ffffffff81000000 <_ZN2Ec16ret_user_sysexitEv>:
    if (hzd & HZD_FPU)
        if (current != fpowner)
            Fpu::disable();
}

void Ec::ret_user_sysexit() {
ffffffff81000000:	50                   	push   %rax
    if (current->is_idle()) {
ffffffff81000001:	48 8b 05 00 f0 ff 3e 	mov    0x3efff000(%rip),%rax        # ffffffffbffff008 <_ZN2Ec7currentE>
ffffffff81000008:	83 b8 4c 03 00 00 00 	cmpl   $0x0,0x34c(%rax)
ffffffff8100000f:	75 47                	jne    ffffffff81000058 <_ZN2Ec16ret_user_sysexitEv+0x58>
        mword hzd = (Cpu::hazard | current->regs.hazard()) & (HZD_RECALL | HZD_STEP | HZD_RCU | HZD_FPU | HZD_DS_ES | HZD_SCHED);
ffffffff81000011:	8b 3d e9 ef ff 3e    	mov    0x3effefe9(%rip),%edi        # ffffffffbffff000 <_ZN3Cpu6hazardE>
ffffffff81000017:	48 0b b8 80 01 00 00 	or     0x180(%rax),%rdi
        if (EXPECT_FALSE(hzd))
ffffffff8100001e:	81 e7 1b 00 00 c0    	and    $0xc000001b,%edi
ffffffff81000024:	74 0c                	je     ffffffff81000032 <_ZN2Ec16ret_user_sysexitEv+0x32>
            handle_hazard(hzd, ret_user_sysexit);
ffffffff81000026:	48 c7 c6 00 00 00 81 	mov    $0xffffffff81000000,%rsi
ffffffff8100002d:	e8 f2 47 00 00       	callq  ffffffff81004824 <_ZN2Ec13handle_hazardEmPFvvE>

        current->save_state();
ffffffff81000032:	48 8b 05 cf ef ff 3e 	mov    0x3effefcf(%rip),%rax        # ffffffffbffff008 <_ZN2Ec7currentE>
    void restore_state();

    void rollback();

    void save_state() {
        regs_0 = regs;
ffffffff81000039:	b9 3c 00 00 00       	mov    $0x3c,%ecx
ffffffff8100003e:	48 8d b8 98 01 00 00 	lea    0x198(%rax),%rdi
ffffffff81000045:	48 8d b0 a8 00 00 00 	lea    0xa8(%rax),%rsi
ffffffff8100004c:	f3 a5                	rep movsl %ds:(%rsi),%es:(%rdi)
        current->launch_state = Ec::sysexit;
ffffffff8100004e:	c7 80 4c 03 00 00 01 	movl   $0x1,0x34c(%rax)
ffffffff81000055:	00 00 00 
    }
    asm volatile ("lea %0," EXPAND(PREG(sp); LOAD_GPR RET_USER_HYP) : : "m" (current->regs) : "memory");
ffffffff81000058:	48 8b 05 a9 ef ff 3e 	mov    0x3effefa9(%rip),%rax        # ffffffffbffff008 <_ZN2Ec7currentE>
ffffffff8100005f:	48 8d a0 a8 00 00 00 	lea    0xa8(%rax),%rsp
ffffffff81000066:	41 5f                	pop    %r15
ffffffff81000068:	41 5e                	pop    %r14
ffffffff8100006a:	41 5d                	pop    %r13
ffffffff8100006c:	41 5c                	pop    %r12
ffffffff8100006e:	41 5b                	pop    %r11
ffffffff81000070:	41 5a                	pop    %r10
ffffffff81000072:	41 59                	pop    %r9
ffffffff81000074:	41 58                	pop    %r8
ffffffff81000076:	5f                   	pop    %rdi
ffffffff81000077:	5e                   	pop    %rsi
ffffffff81000078:	5d                   	pop    %rbp
ffffffff81000079:	58                   	pop    %rax
ffffffff8100007a:	5b                   	pop    %rbx
ffffffff8100007b:	5a                   	pop    %rdx
ffffffff8100007c:	59                   	pop    %rcx
ffffffff8100007d:	58                   	pop    %rax
ffffffff8100007e:	4c 89 dc             	mov    %r11,%rsp
ffffffff81000081:	49 c7 c3 00 02 00 00 	mov    $0x200,%r11
ffffffff81000088:	48 0f 07             	sysretq 
ffffffff8100008b:	90                   	nop

ffffffff8100008c <ret_user_iret>:

    UNREACHED;
}

void Ec::ret_user_iret() {
ffffffff8100008c:	50                   	push   %rax
    if (current->is_idle()) {
ffffffff8100008d:	48 8b 05 74 ef ff 3e 	mov    0x3effef74(%rip),%rax        # ffffffffbffff008 <_ZN2Ec7currentE>
ffffffff81000094:	83 b8 4c 03 00 00 00 	cmpl   $0x0,0x34c(%rax)
ffffffff8100009b:	75 47                	jne    ffffffff810000e4 <ret_user_iret+0x58>
        // No need to check HZD_DS_ES because IRET will reload both anyway
        mword hzd = (Cpu::hazard | current->regs.hazard()) & (HZD_RECALL | HZD_STEP | HZD_RCU | HZD_FPU | HZD_SCHED);
ffffffff8100009d:	8b 3d 5d ef ff 3e    	mov    0x3effef5d(%rip),%edi        # ffffffffbffff000 <_ZN3Cpu6hazardE>
ffffffff810000a3:	48 0b b8 80 01 00 00 	or     0x180(%rax),%rdi
        if (EXPECT_FALSE(hzd))
ffffffff810000aa:	81 e7 19 00 00 c0    	and    $0xc0000019,%edi
ffffffff810000b0:	74 0c                	je     ffffffff810000be <ret_user_iret+0x32>
            handle_hazard(hzd, ret_user_iret);
ffffffff810000b2:	48 c7 c6 8c 00 00 81 	mov    $0xffffffff8100008c,%rsi
ffffffff810000b9:	e8 66 47 00 00       	callq  ffffffff81004824 <_ZN2Ec13handle_hazardEmPFvvE>

        current->save_state();
ffffffff810000be:	48 8b 05 43 ef ff 3e 	mov    0x3effef43(%rip),%rax        # ffffffffbffff008 <_ZN2Ec7currentE>
ffffffff810000c5:	b9 3c 00 00 00       	mov    $0x3c,%ecx
ffffffff810000ca:	48 8d b8 98 01 00 00 	lea    0x198(%rax),%rdi
ffffffff810000d1:	48 8d b0 a8 00 00 00 	lea    0xa8(%rax),%rsi
ffffffff810000d8:	f3 a5                	rep movsl %ds:(%rsi),%es:(%rdi)
        current->launch_state = Ec::iret;
ffffffff810000da:	c7 80 4c 03 00 00 02 	movl   $0x2,0x34c(%rax)
ffffffff810000e1:	00 00 00 
    }
    asm volatile ("lea %0," EXPAND(PREG(sp); LOAD_GPR LOAD_SEG RET_USER_EXC) : : "m" (current->regs) : "memory");
ffffffff810000e4:	48 8b 05 1d ef ff 3e 	mov    0x3effef1d(%rip),%rax        # ffffffffbffff008 <_ZN2Ec7currentE>
ffffffff810000eb:	48 8d a0 a8 00 00 00 	lea    0xa8(%rax),%rsp
ffffffff810000f2:	41 5f                	pop    %r15
ffffffff810000f4:	41 5e                	pop    %r14
ffffffff810000f6:	41 5d                	pop    %r13
ffffffff810000f8:	41 5c                	pop    %r12
ffffffff810000fa:	41 5b                	pop    %r11
ffffffff810000fc:	41 5a                	pop    %r10
ffffffff810000fe:	41 59                	pop    %r9
ffffffff81000100:	41 58                	pop    %r8
ffffffff81000102:	5f                   	pop    %rdi
ffffffff81000103:	5e                   	pop    %rsi
ffffffff81000104:	5d                   	pop    %rbp
ffffffff81000105:	58                   	pop    %rax
ffffffff81000106:	5b                   	pop    %rbx
ffffffff81000107:	5a                   	pop    %rdx
ffffffff81000108:	59                   	pop    %rcx
ffffffff81000109:	58                   	pop    %rax
ffffffff8100010a:	48 83 c4 30          	add    $0x30,%rsp
ffffffff8100010e:	48 cf                	iretq  

ffffffff81000110 <chk_kern_preempt>:

    UNREACHED;
}

void Ec::chk_kern_preempt() {
    if (!Cpu::preemption)
ffffffff81000110:	80 3d 19 f6 ff 3e 00 	cmpb   $0x0,0x3efff619(%rip)        # ffffffffbffff730 <_ZN3Cpu10preemptionE>
ffffffff81000117:	74 2e                	je     ffffffff81000147 <chk_kern_preempt+0x37>
ffffffff81000119:	48 8b 05 e8 ee ff 3e 	mov    0x3effeee8(%rip),%rax        # ffffffffbffff008 <_ZN2Ec7currentE>
        return;

    if (Ec::current->is_idle() && Cpu::hazard & HZD_SCHED) { // this may leak from the kernel without terminating a double_running.
ffffffff81000120:	83 b8 4c 03 00 00 00 	cmpl   $0x0,0x34c(%rax)
ffffffff81000127:	75 1e                	jne    ffffffff81000147 <chk_kern_preempt+0x37>
ffffffff81000129:	f6 05 d0 ee ff 3e 01 	testb  $0x1,0x3effeed0(%rip)        # ffffffffbffff000 <_ZN3Cpu6hazardE>
ffffffff81000130:	74 15                	je     ffffffff81000147 <chk_kern_preempt+0x37>
    asm volatile ("lea %0," EXPAND(PREG(sp); LOAD_GPR LOAD_SEG RET_USER_EXC) : : "m" (current->regs) : "memory");

    UNREACHED;
}

void Ec::chk_kern_preempt() {
ffffffff81000132:	50                   	push   %rax
        ALWAYS_INLINE
        static inline void preempt_disable()
        {
            assert (preemption);

            asm volatile ("cli" : : : "memory");
ffffffff81000133:	fa                   	cli    
    if (!Cpu::preemption)
        return;

    if (Ec::current->is_idle() && Cpu::hazard & HZD_SCHED) { // this may leak from the kernel without terminating a double_running.
        Cpu::preempt_disable();
        Sc::schedule();
ffffffff81000134:	be 01 00 00 00       	mov    $0x1,%esi
ffffffff81000139:	31 ff                	xor    %edi,%edi
            preemption = false;
ffffffff8100013b:	c6 05 ee f5 ff 3e 00 	movb   $0x0,0x3efff5ee(%rip)        # ffffffffbffff730 <_ZN3Cpu10preemptionE>
ffffffff81000142:	e8 6d 4c 01 00       	callq  ffffffff81014db4 <_ZN2Sc8scheduleEbb>
ffffffff81000147:	c3                   	retq   

ffffffff81000148 <_ZN2Ec9recv_kernEv>:
    sys_finish<Sys_regs::COM_TIM>();
}

void Ec::recv_kern()
{
    Ec *ec = current->rcap;
ffffffff81000148:	48 8b 05 b9 ee ff 3e 	mov    0x3effeeb9(%rip),%rax        # ffffffffbffff008 <_ZN2Ec7currentE>

    sys_finish<Sys_regs::COM_TIM>();
}

void Ec::recv_kern()
{
ffffffff8100014f:	53                   	push   %rbx
    Ec *ec = current->rcap;
ffffffff81000150:	48 8b 98 88 02 00 00 	mov    0x288(%rax),%rbx

    bool fpu = false;

    if (ec->cont == ret_user_iret)
ffffffff81000157:	48 8b 93 a0 00 00 00 	mov    0xa0(%rbx),%rdx
ffffffff8100015e:	48 81 fa 8c 00 00 81 	cmp    $0xffffffff8100008c,%rdx
ffffffff81000165:	75 15                	jne    ffffffff8100017c <_ZN2Ec9recv_kernEv+0x34>
        fpu = current->utcb->load_exc (&ec->regs);
ffffffff81000167:	48 8b b8 90 02 00 00 	mov    0x290(%rax),%rdi
ffffffff8100016e:	48 8d b3 a8 00 00 00 	lea    0xa8(%rbx),%rsi
ffffffff81000175:	e8 a8 ac 01 00       	callq  ffffffff8101ae22 <_ZN4Utcb8load_excEP8Cpu_regs>
ffffffff8100017a:	eb 3a                	jmp    ffffffff810001b6 <_ZN2Ec9recv_kernEv+0x6e>
    else if (ec->cont == ret_user_vmresume)
ffffffff8100017c:	48 81 fa 52 51 00 81 	cmp    $0xffffffff81005152,%rdx
ffffffff81000183:	75 15                	jne    ffffffff8100019a <_ZN2Ec9recv_kernEv+0x52>
        fpu = current->utcb->load_vmx (&ec->regs);
ffffffff81000185:	48 8b b8 90 02 00 00 	mov    0x290(%rax),%rdi
ffffffff8100018c:	48 8d b3 a8 00 00 00 	lea    0xa8(%rbx),%rsi
ffffffff81000193:	e8 84 ae 01 00       	callq  ffffffff8101b01c <_ZN4Utcb8load_vmxEP8Cpu_regs>
ffffffff81000198:	eb 1c                	jmp    ffffffff810001b6 <_ZN2Ec9recv_kernEv+0x6e>
    else if (ec->cont == ret_user_vmrun)
ffffffff8100019a:	48 81 fa 8a 4a 00 81 	cmp    $0xffffffff81004a8a,%rdx
ffffffff810001a1:	75 26                	jne    ffffffff810001c9 <_ZN2Ec9recv_kernEv+0x81>
        fpu = current->utcb->load_svm (&ec->regs);
ffffffff810001a3:	48 8b b8 90 02 00 00 	mov    0x290(%rax),%rdi
ffffffff810001aa:	48 8d b3 a8 00 00 00 	lea    0xa8(%rbx),%rsi
ffffffff810001b1:	e8 40 bb 01 00       	callq  ffffffff8101bcf6 <_ZN4Utcb8load_svmEP8Cpu_regs>

    if (EXPECT_FALSE (fpu))
ffffffff810001b6:	84 c0                	test   %al,%al
ffffffff810001b8:	74 0f                	je     ffffffff810001c9 <_ZN2Ec9recv_kernEv+0x81>
        ec->transfer_fpu (current);
ffffffff810001ba:	48 8b 35 47 ee ff 3e 	mov    0x3effee47(%rip),%rsi        # ffffffffbffff008 <_ZN2Ec7currentE>
ffffffff810001c1:	48 89 df             	mov    %rbx,%rdi
ffffffff810001c4:	e8 d9 60 00 00       	callq  ffffffff810062a2 <_ZN2Ec12transfer_fpuEPS_>

    ret_user_sysexit();
ffffffff810001c9:	e8 32 fe ff ff       	callq  ffffffff81000000 <_ZN2Ec16ret_user_sysexitEv>

ffffffff810001ce <_ZN2Ec5replyEPFvvEP2Sm>:

    ret_user_sysexit();
}

void Ec::reply (void (*c)(), Sm * sm)
{
ffffffff810001ce:	41 55                	push   %r13
ffffffff810001d0:	41 54                	push   %r12
ffffffff810001d2:	55                   	push   %rbp
ffffffff810001d3:	53                   	push   %rbx
ffffffff810001d4:	50                   	push   %rax
    current->cont = c;
ffffffff810001d5:	48 8b 05 2c ee ff 3e 	mov    0x3effee2c(%rip),%rax        # ffffffffbffff008 <_ZN2Ec7currentE>

    if (EXPECT_FALSE (current->glb))
ffffffff810001dc:	66 83 b8 f2 02 00 00 	cmpw   $0x0,0x2f2(%rax)
ffffffff810001e3:	00 
    ret_user_sysexit();
}

void Ec::reply (void (*c)(), Sm * sm)
{
    current->cont = c;
ffffffff810001e4:	48 89 b8 a0 00 00 00 	mov    %rdi,0xa0(%rax)

    if (EXPECT_FALSE (current->glb))
ffffffff810001eb:	74 0f                	je     ffffffff810001fc <_ZN2Ec5replyEPFvvEP2Sm+0x2e>
        Sc::schedule (true);
ffffffff810001ed:	be 01 00 00 00       	mov    $0x1,%esi
ffffffff810001f2:	bf 01 00 00 00       	mov    $0x1,%edi
ffffffff810001f7:	e9 4c 02 00 00       	jmpq   ffffffff81000448 <_ZN2Ec5replyEPFvvEP2Sm+0x27a>

    Ec *ec = current->rcap;
ffffffff810001fc:	48 8b 98 88 02 00 00 	mov    0x288(%rax),%rbx

    if (EXPECT_FALSE (!ec))
ffffffff81000203:	48 85 db             	test   %rbx,%rbx
ffffffff81000206:	0f 84 50 02 00 00    	je     ffffffff8100045c <_ZN2Ec5replyEPFvvEP2Sm+0x28e>
        Sc::ctr_link++;
    }

    ALWAYS_INLINE
    inline unsigned clr_partner() {
        assert(partner == current);
ffffffff8100020c:	48 39 83 a0 02 00 00 	cmp    %rax,0x2a0(%rbx)
ffffffff81000213:	74 1f                	je     ffffffff81000234 <_ZN2Ec5replyEPFvvEP2Sm+0x66>
ffffffff81000215:	49 c7 c0 40 12 02 81 	mov    $0xffffffff81021240,%r8
ffffffff8100021c:	b9 b6 00 00 00       	mov    $0xb6,%ecx
ffffffff81000221:	48 c7 c2 d3 da 01 81 	mov    $0xffffffff8101dad3,%rdx
ffffffff81000228:	48 c7 c6 07 e8 01 81 	mov    $0xffffffff8101e807,%rsi
ffffffff8100022f:	e9 3d 03 00 00       	jmpq   ffffffff81000571 <_ZN2Ec5replyEPFvvEP2Sm+0x3a3>
ffffffff81000234:	48 89 f5             	mov    %rsi,%rbp
        ALWAYS_INLINE
        static inline T add (T &ptr, T v) { return __sync_add_and_fetch (&ptr, v); }

        template <typename T>
        ALWAYS_INLINE
        static inline T sub (T &ptr, T v) { return __sync_sub_and_fetch (&ptr, v); }
ffffffff81000237:	f0 ff 8b 8c 00 00 00 	lock decl 0x8c(%rbx)
        if (partner->rcap) {
            partner->rcap->del_ref();
            partner->rcap = nullptr;
ffffffff8100023e:	48 8b 83 a0 02 00 00 	mov    0x2a0(%rbx),%rax
ffffffff81000245:	48 c7 80 88 02 00 00 	movq   $0x0,0x288(%rax)
ffffffff8100024c:	00 00 00 00 
ffffffff81000250:	48 8b 83 a0 02 00 00 	mov    0x2a0(%rbx),%rax
ffffffff81000257:	f0 ff 88 8c 00 00 00 	lock decl 0x8c(%rax)
        }
        partner->del_ref();
        partner = nullptr;
        return Sc::ctr_link--;
ffffffff8100025e:	8b 05 a0 fa ff 3e    	mov    0x3efffaa0(%rip),%eax        # ffffffffbffffd04 <_ZN2Sc8ctr_linkE>
        if (partner->rcap) {
            partner->rcap->del_ref();
            partner->rcap = nullptr;
        }
        partner->del_ref();
        partner = nullptr;
ffffffff81000264:	48 c7 83 a0 02 00 00 	movq   $0x0,0x2a0(%rbx)
ffffffff8100026b:	00 00 00 00 
        Sc::current->ec->activate();

    bool clr = ec->clr_partner();
ffffffff8100026f:	85 c0                	test   %eax,%eax
        return Sc::ctr_link--;
ffffffff81000271:	8d 50 ff             	lea    -0x1(%rax),%edx
ffffffff81000274:	41 0f 95 c5          	setne  %r13b

    if (sm)
ffffffff81000278:	48 85 f6             	test   %rsi,%rsi
ffffffff8100027b:	89 15 83 fa ff 3e    	mov    %edx,0x3efffa83(%rip)        # ffffffffbffffd04 <_ZN2Sc8ctr_linkE>
ffffffff81000281:	0f 84 d0 01 00 00    	je     ffffffff81000457 <_ZN2Ec5replyEPFvvEP2Sm+0x289>
        }

        ALWAYS_INLINE
        inline void dn (bool zero, uint64 t, Ec *ec = Ec::current, bool block = true)
        {
            {   Lock_guard <Spinlock> guard (lock);
ffffffff81000287:	48 8d be 8a 00 00 00 	lea    0x8a(%rsi),%rdi

        ALWAYS_INLINE
        static inline bool preempt_status()
        {
            mword flags = 0;
            asm volatile ("pushf; pop %0" : "=r" (flags));
ffffffff8100028e:	9c                   	pushfq 
ffffffff8100028f:	41 5c                	pop    %r12
            return flags & 0x200;
ffffffff81000291:	49 c1 ec 09          	shr    $0x9,%r12

    public:
        ALWAYS_INLINE
        inline Lock_guard (T &l) : _lock (l), pre(Cpu::preempt_status())
        {
            if (pre)
ffffffff81000295:	41 80 e4 01          	and    $0x1,%r12b
ffffffff81000299:	74 30                	je     ffffffff810002cb <_ZN2Ec5replyEPFvvEP2Sm+0xfd>
        }

        ALWAYS_INLINE
        static inline void preempt_disable()
        {
            assert (preemption);
ffffffff8100029b:	80 3d 8e f4 ff 3e 00 	cmpb   $0x0,0x3efff48e(%rip)        # ffffffffbffff730 <_ZN3Cpu10preemptionE>
ffffffff810002a2:	75 1f                	jne    ffffffff810002c3 <_ZN2Ec5replyEPFvvEP2Sm+0xf5>
ffffffff810002a4:	49 c7 c0 f0 12 02 81 	mov    $0xffffffff810212f0,%r8
ffffffff810002ab:	b9 b7 00 00 00       	mov    $0xb7,%ecx
ffffffff810002b0:	48 c7 c2 22 d3 01 81 	mov    $0xffffffff8101d322,%rdx
ffffffff810002b7:	48 c7 c6 92 d3 01 81 	mov    $0xffffffff8101d392,%rsi
ffffffff810002be:	e9 ae 02 00 00       	jmpq   ffffffff81000571 <_ZN2Ec5replyEPFvvEP2Sm+0x3a3>

            asm volatile ("cli" : : : "memory");
ffffffff810002c3:	fa                   	cli    
            preemption = false;
ffffffff810002c4:	c6 05 65 f4 ff 3e 00 	movb   $0x0,0x3efff465(%rip)        # ffffffffbffff730 <_ZN3Cpu10preemptionE>
                Cpu::preempt_disable();

            _lock.lock();
ffffffff810002cb:	e8 be 0b 00 00       	callq  ffffffff81000e8e <_ZN8Spinlock4lockEv>

                if (counter) {
ffffffff810002d0:	48 8b 85 c0 00 00 00 	mov    0xc0(%rbp),%rax
ffffffff810002d7:	48 85 c0             	test   %rax,%rax
ffffffff810002da:	0f 84 aa 00 00 00    	je     ffffffff8100038a <_ZN2Ec5replyEPFvvEP2Sm+0x1bc>
                    counter = zero ? 0 : counter - 1;
ffffffff810002e0:	48 ff c8             	dec    %rax
ffffffff810002e3:	48 89 85 c0 00 00 00 	mov    %rax,0xc0(%rbp)
    public:
        ALWAYS_INLINE
        inline Queue() : headptr (nullptr) {}

        ALWAYS_INLINE
        inline T *head() const { return headptr; }
ffffffff810002ea:	48 8b 85 98 00 00 00 	mov    0x98(%rbp),%rax
        }

        ALWAYS_INLINE
        inline bool dequeue (T *t)
        {
            if (!t || !t->next || !t->prev)
ffffffff810002f1:	48 85 c0             	test   %rax,%rax
ffffffff810002f4:	0f 84 30 01 00 00    	je     ffffffff8100042a <_ZN2Ec5replyEPFvvEP2Sm+0x25c>
ffffffff810002fa:	48 8b 50 10          	mov    0x10(%rax),%rdx
ffffffff810002fe:	48 85 d2             	test   %rdx,%rdx
ffffffff81000301:	0f 84 23 01 00 00    	je     ffffffff8100042a <_ZN2Ec5replyEPFvvEP2Sm+0x25c>
ffffffff81000307:	48 8b 48 08          	mov    0x8(%rax),%rcx
ffffffff8100030b:	48 85 c9             	test   %rcx,%rcx
ffffffff8100030e:	0f 84 16 01 00 00    	je     ffffffff8100042a <_ZN2Ec5replyEPFvvEP2Sm+0x25c>
                return false;

            if (t == t->next)
ffffffff81000314:	48 39 d0             	cmp    %rdx,%rax
ffffffff81000317:	75 0d                	jne    ffffffff81000326 <_ZN2Ec5replyEPFvvEP2Sm+0x158>
                headptr = nullptr;
ffffffff81000319:	48 c7 85 98 00 00 00 	movq   $0x0,0x98(%rbp)
ffffffff81000320:	00 00 00 00 
ffffffff81000324:	eb 24                	jmp    ffffffff8100034a <_ZN2Ec5replyEPFvvEP2Sm+0x17c>

            else {
                t->next->prev = t->prev;
ffffffff81000326:	48 89 4a 08          	mov    %rcx,0x8(%rdx)
                t->prev->next = t->next;
ffffffff8100032a:	48 8b 50 08          	mov    0x8(%rax),%rdx
ffffffff8100032e:	48 8b 48 10          	mov    0x10(%rax),%rcx
ffffffff81000332:	48 89 4a 10          	mov    %rcx,0x10(%rdx)
                if (t == headptr)
ffffffff81000336:	48 3b 85 98 00 00 00 	cmp    0x98(%rbp),%rax
ffffffff8100033d:	75 0b                	jne    ffffffff8100034a <_ZN2Ec5replyEPFvvEP2Sm+0x17c>
                    headptr = t->next;
ffffffff8100033f:	48 8b 50 10          	mov    0x10(%rax),%rdx
ffffffff81000343:	48 89 95 98 00 00 00 	mov    %rdx,0x98(%rbp)

    public:

        mword reset(bool l = false) {
            if (l) lock.lock();
            mword c = counter;
ffffffff8100034a:	48 8b 50 20          	mov    0x20(%rax),%rdx
            }

            t->next = t->prev = nullptr;
ffffffff8100034e:	48 c7 40 08 00 00 00 	movq   $0x0,0x8(%rax)
ffffffff81000355:	00 
ffffffff81000356:	48 c7 40 10 00 00 00 	movq   $0x0,0x10(%rax)
ffffffff8100035d:	00 
            counter = 0;
ffffffff8100035e:	48 c7 40 20 00 00 00 	movq   $0x0,0x20(%rax)
ffffffff81000365:	00 
                if (counter) {
                    counter = zero ? 0 : counter - 1;

                    Si * si;
                    if (Queue<Si>::dequeue(si = Queue<Si>::head()))
                        ec->set_si_regs(si->value, static_cast <Sm *>(si)->reset());
ffffffff81000366:	48 8b 40 18          	mov    0x18(%rax),%rax
    }

    ALWAYS_INLINE
    inline void set_si_regs(mword sig, mword cnt) {
        regs.ARG_2 = sig;
        regs.ARG_3 = cnt;
ffffffff8100036a:	48 89 93 10 01 00 00 	mov    %rdx,0x110(%rbx)
            timeout.dequeue();
    }

    ALWAYS_INLINE
    inline void set_si_regs(mword sig, mword cnt) {
        regs.ARG_2 = sig;
ffffffff81000371:	48 89 83 f0 00 00 00 	mov    %rax,0xf0(%rbx)
ffffffff81000378:	e9 ad 00 00 00       	jmpq   ffffffff8100042a <_ZN2Ec5replyEPFvvEP2Sm+0x25c>

        ALWAYS_INLINE
        inline bool add_ref()
        {
            for (uint32 r; (r = ref), (r != ex); )
                if (Atomic::cmp_swap (ref, r, r + 1))
ffffffff8100037d:	8d 50 01             	lea    0x1(%rax),%edx
class Atomic
{
    public:
        template <typename T>
        ALWAYS_INLINE
        static inline bool cmp_swap (T &ptr, T o, T n) { return __sync_bool_compare_and_swap (&ptr, o, n); }
ffffffff81000380:	f0 0f b1 93 8c 00 00 	lock cmpxchg %edx,0x8c(%rbx)
ffffffff81000387:	00 
ffffffff81000388:	74 0a                	je     ffffffff81000394 <_ZN2Ec5replyEPFvvEP2Sm+0x1c6>
        inline Refex() : ref (1) {}

        ALWAYS_INLINE
        inline bool add_ref()
        {
            for (uint32 r; (r = ref), (r != ex); )
ffffffff8100038a:	8b 83 8c 00 00 00    	mov    0x8c(%rbx),%eax
ffffffff81000390:	85 c0                	test   %eax,%eax
ffffffff81000392:	75 e9                	jne    ffffffff8100037d <_ZN2Ec5replyEPFvvEP2Sm+0x1af>
        inline T *head() const { return headptr; }

        ALWAYS_INLINE
        inline void enqueue (T *t)
        {
            if (!headptr)
ffffffff81000394:	48 8b 85 90 00 00 00 	mov    0x90(%rbp),%rax
ffffffff8100039b:	48 85 c0             	test   %rax,%rax
ffffffff8100039e:	75 17                	jne    ffffffff810003b7 <_ZN2Ec5replyEPFvvEP2Sm+0x1e9>
                headptr = t->prev = t->next = t;
ffffffff810003a0:	48 89 9b b0 02 00 00 	mov    %rbx,0x2b0(%rbx)
ffffffff810003a7:	48 89 9b a8 02 00 00 	mov    %rbx,0x2a8(%rbx)
ffffffff810003ae:	48 89 9d 90 00 00 00 	mov    %rbx,0x90(%rbp)
ffffffff810003b5:	eb 2a                	jmp    ffffffff810003e1 <_ZN2Ec5replyEPFvvEP2Sm+0x213>
            else {
                t->next = headptr;
ffffffff810003b7:	48 89 83 b0 02 00 00 	mov    %rax,0x2b0(%rbx)
                t->prev = headptr->prev;
ffffffff810003be:	48 8b 95 90 00 00 00 	mov    0x90(%rbp),%rdx
ffffffff810003c5:	48 8b 92 a8 02 00 00 	mov    0x2a8(%rdx),%rdx
ffffffff810003cc:	48 89 93 a8 02 00 00 	mov    %rdx,0x2a8(%rbx)
                t->next->prev = t->prev->next = t;
ffffffff810003d3:	48 89 9a b0 02 00 00 	mov    %rbx,0x2b0(%rdx)
ffffffff810003da:	48 89 98 a8 02 00 00 	mov    %rbx,0x2a8(%rax)
        }

        ALWAYS_INLINE
        inline void unlock()
        {
            asm volatile ("incb %0" : "=m" (val) : : "memory");
ffffffff810003e1:	fe 85 8a 00 00 00    	incb   0x8a(%rbp)
        ALWAYS_INLINE
        inline ~Lock_guard()
        {
            _lock.unlock();

            if (pre)
ffffffff810003e7:	45 84 e4             	test   %r12b,%r12b
ffffffff810003ea:	74 30                	je     ffffffff8100041c <_ZN2Ec5replyEPFvvEP2Sm+0x24e>
        }

        ALWAYS_INLINE
        static inline void preempt_enable()
        {
            assert (!preemption);
ffffffff810003ec:	80 3d 3d f3 ff 3e 00 	cmpb   $0x0,0x3efff33d(%rip)        # ffffffffbffff730 <_ZN3Cpu10preemptionE>
ffffffff810003f3:	74 1f                	je     ffffffff81000414 <_ZN2Ec5replyEPFvvEP2Sm+0x246>
ffffffff810003f5:	49 c7 c0 c0 12 02 81 	mov    $0xffffffff810212c0,%r8
ffffffff810003fc:	b9 c0 00 00 00       	mov    $0xc0,%ecx
ffffffff81000401:	48 c7 c2 22 d3 01 81 	mov    $0xffffffff8101d322,%rdx
ffffffff81000408:	48 c7 c6 91 d3 01 81 	mov    $0xffffffff8101d391,%rsi
ffffffff8100040f:	e9 5d 01 00 00       	jmpq   ffffffff81000571 <_ZN2Ec5replyEPFvvEP2Sm+0x3a3>

            preemption = true;
ffffffff81000414:	c6 05 15 f3 ff 3e 01 	movb   $0x1,0x3efff315(%rip)        # ffffffffbffff730 <_ZN3Cpu10preemptionE>
            asm volatile ("sti" : : : "memory");
ffffffff8100041b:	fb                   	sti    
                ec->add_ref();

                Queue<Ec>::enqueue (ec);
            }

            if (!block)
ffffffff8100041c:	45 84 ed             	test   %r13b,%r13b
ffffffff8100041f:	75 2c                	jne    ffffffff8100044d <_ZN2Ec5replyEPFvvEP2Sm+0x27f>
                Sc::schedule (false);
ffffffff81000421:	be 01 00 00 00       	mov    $0x1,%esi
ffffffff81000426:	31 ff                	xor    %edi,%edi
ffffffff81000428:	eb 1e                	jmp    ffffffff81000448 <_ZN2Ec5replyEPFvvEP2Sm+0x27a>
ffffffff8100042a:	fe 85 8a 00 00 00    	incb   0x8a(%rbp)
ffffffff81000430:	45 84 e4             	test   %r12b,%r12b
ffffffff81000433:	74 22                	je     ffffffff81000457 <_ZN2Ec5replyEPFvvEP2Sm+0x289>
        }

        ALWAYS_INLINE
        static inline void preempt_enable()
        {
            assert (!preemption);
ffffffff81000435:	80 3d f4 f2 ff 3e 00 	cmpb   $0x0,0x3efff2f4(%rip)        # ffffffffbffff730 <_ZN3Cpu10preemptionE>
ffffffff8100043c:	75 b7                	jne    ffffffff810003f5 <_ZN2Ec5replyEPFvvEP2Sm+0x227>

            preemption = true;
ffffffff8100043e:	c6 05 eb f2 ff 3e 01 	movb   $0x1,0x3efff2eb(%rip)        # ffffffffbffff730 <_ZN3Cpu10preemptionE>
            asm volatile ("sti" : : : "memory");
ffffffff81000445:	fb                   	sti    
ffffffff81000446:	eb 0f                	jmp    ffffffff81000457 <_ZN2Ec5replyEPFvvEP2Sm+0x289>
ffffffff81000448:	e8 67 49 01 00       	callq  ffffffff81014db4 <_ZN2Sc8scheduleEbb>

            ec->set_timeout (t, this);

            ec->block_sc();
ffffffff8100044d:	48 89 df             	mov    %rbx,%rdi
ffffffff81000450:	e8 19 b3 00 00       	callq  ffffffff8100b76e <_ZN2Ec8block_scEv>
ffffffff81000455:	eb 18                	jmp    ffffffff8100046f <_ZN2Ec5replyEPFvvEP2Sm+0x2a1>
        sm->dn (false, 0, ec, clr);

    if (!clr)
ffffffff81000457:	45 84 ed             	test   %r13b,%r13b
ffffffff8100045a:	75 13                	jne    ffffffff8100046f <_ZN2Ec5replyEPFvvEP2Sm+0x2a1>
    private:
        T * const ptr;

    public:
        operator T*() const     { return ptr; }
        T * operator->() const  { return ptr; }
ffffffff8100045c:	48 8b 05 b5 eb ff 3e 	mov    0x3effebb5(%rip),%rax        # ffffffffbffff018 <_ZN2Sc7currentE>
        Sc::current->ec->activate();
ffffffff81000463:	48 8b b8 90 00 00 00 	mov    0x90(%rax),%rdi
ffffffff8100046a:	e8 07 70 01 00       	callq  ffffffff81017476 <_ZN2Ec8activateEv>
        ALWAYS_INLINE
        static inline T add (T &ptr, T v) { return __sync_add_and_fetch (&ptr, v); }

        template <typename T>
        ALWAYS_INLINE
        static inline T sub (T &ptr, T v) { return __sync_sub_and_fetch (&ptr, v); }
ffffffff8100046f:	48 8b 05 92 eb ff 3e 	mov    0x3effeb92(%rip),%rax        # ffffffffbffff008 <_ZN2Ec7currentE>
ffffffff81000476:	83 ca ff             	or     $0xffffffff,%edx
ffffffff81000479:	f0 0f c1 90 8c 00 00 	lock xadd %edx,0x8c(%rax)
ffffffff81000480:	00 
        regs.ARG_3 = cnt;
    }

    ALWAYS_INLINE NORETURN
    inline void make_current() {
        if (EXPECT_FALSE(current->del_ref())) {
ffffffff81000481:	ff ca                	dec    %edx
ffffffff81000483:	75 31                	jne    ffffffff810004b6 <_ZN2Ec5replyEPFvvEP2Sm+0x2e8>
            delete current;
ffffffff81000485:	48 8b 2d 7c eb ff 3e 	mov    0x3effeb7c(%rip),%rbp        # ffffffffbffff008 <_ZN2Ec7currentE>
ffffffff8100048c:	48 85 ed             	test   %rbp,%rbp
ffffffff8100048f:	74 25                	je     ffffffff810004b6 <_ZN2Ec5replyEPFvvEP2Sm+0x2e8>
ffffffff81000491:	48 89 ef             	mov    %rbp,%rdi
ffffffff81000494:	e8 a3 3f 00 00       	callq  ffffffff8100443c <_ZN2EcD1Ev>
        return cache.alloc(quota);
    }

    ALWAYS_INLINE
    static inline void operator delete (void *ptr) {
        cache.free(ptr, static_cast<Ec *> (ptr)->pd->quota);
ffffffff81000499:	48 8b 85 98 02 00 00 	mov    0x298(%rbp),%rax
ffffffff810004a0:	48 89 ee             	mov    %rbp,%rsi
ffffffff810004a3:	48 c7 c7 a0 20 16 81 	mov    $0xffffffff811620a0,%rdi
ffffffff810004aa:	48 8d 90 08 03 00 00 	lea    0x308(%rax),%rdx
ffffffff810004b1:	e8 b4 55 01 00       	callq  ffffffff81015a6a <_ZN10Slab_cache4freeEPvR5Quota>
    inline void make_current() {
        if (EXPECT_FALSE(current->del_ref())) {
            delete current;
        }

        current = this;
ffffffff810004b6:	48 89 1d 4b eb ff 3e 	mov    %rbx,0x3effeb4b(%rip)        # ffffffffbffff008 <_ZN2Ec7currentE>
        inline Refex() : ref (1) {}

        ALWAYS_INLINE
        inline bool add_ref()
        {
            for (uint32 r; (r = ref), (r != ex); )
ffffffff810004bd:	8b 83 8c 00 00 00    	mov    0x8c(%rbx),%eax
ffffffff810004c3:	85 c0                	test   %eax,%eax
ffffffff810004c5:	74 0d                	je     ffffffff810004d4 <_ZN2Ec5replyEPFvvEP2Sm+0x306>
                if (Atomic::cmp_swap (ref, r, r + 1))
ffffffff810004c7:	8d 50 01             	lea    0x1(%rax),%edx
class Atomic
{
    public:
        template <typename T>
        ALWAYS_INLINE
        static inline bool cmp_swap (T &ptr, T o, T n) { return __sync_bool_compare_and_swap (&ptr, o, n); }
ffffffff810004ca:	f0 0f b1 93 8c 00 00 	lock cmpxchg %edx,0x8c(%rbx)
ffffffff810004d1:	00 
ffffffff810004d2:	75 e9                	jne    ffffffff810004bd <_ZN2Ec5replyEPFvvEP2Sm+0x2ef>
    private:
        T * const ptr;

    public:
        operator T*() const     { return ptr; }
        T * operator->() const  { return ptr; }
ffffffff810004d4:	48 8b 93 98 02 00 00 	mov    0x298(%rbx),%rdx

        current->add_ref();

        Tss::run.sp0 = reinterpret_cast<mword> (exc_regs() + 1);
ffffffff810004db:	48 8d 83 80 01 00 00 	lea    0x180(%rbx),%rax

        ALWAYS_INLINE
        inline bool chk (unsigned cpu) const { return val & 1UL << cpu; }
ffffffff810004e2:	8b 0d 1c eb ff 3e    	mov    0x3effeb1c(%rip),%ecx        # ffffffffbffff004 <_ZN3Cpu2idE>
ffffffff810004e8:	48 89 05 dd f8 ff 3e 	mov    %rax,0x3efff8dd(%rip)        # ffffffffbffffdcc <tss_run+0x4>
ffffffff810004ef:	48 8b 82 c8 02 00 00 	mov    0x2c8(%rdx),%rax
        Pd (Pd *own, mword sel, mword a);

        ALWAYS_INLINE HOT
        inline void make_current()
        {
            mword pcid = did;
ffffffff810004f6:	48 8b b2 b8 02 00 00 	mov    0x2b8(%rdx),%rsi

            if (EXPECT_FALSE (htlb.chk (Cpu::id)))
ffffffff810004fd:	48 0f a3 c8          	bt     %rcx,%rax
ffffffff81000501:	73 14                	jae    ffffffff81000517 <_ZN2Ec5replyEPFvvEP2Sm+0x349>

        ALWAYS_INLINE
        inline bool set (unsigned cpu) { return !Atomic::test_set_bit (val, cpu); }

        ALWAYS_INLINE
        inline void clr (unsigned cpu) { Atomic::clr_mask (val, 1UL << cpu); }
ffffffff81000503:	48 c7 c0 fe ff ff ff 	mov    $0xfffffffffffffffe,%rax
        ALWAYS_INLINE
        static inline void set_mask (T &ptr, T v) { __sync_or_and_fetch (&ptr, v); }

        template <typename T>
        ALWAYS_INLINE
        static inline void clr_mask (T &ptr, T v) { __sync_and_and_fetch (&ptr, ~v); }
ffffffff8100050a:	48 d3 c0             	rol    %cl,%rax
ffffffff8100050d:	f0 48 21 82 c8 02 00 	lock and %rax,0x2c8(%rdx)
ffffffff81000514:	00 
ffffffff81000515:	eb 20                	jmp    ffffffff81000537 <_ZN2Ec5replyEPFvvEP2Sm+0x369>
                htlb.clr (Cpu::id);

            else {

                if (EXPECT_TRUE (current == this))
ffffffff81000517:	48 39 15 f2 ea ff 3e 	cmp    %rdx,0x3effeaf2(%rip)        # ffffffffbffff010 <_ZN2Pd7currentE>
ffffffff8100051e:	0f 84 e5 00 00 00    	je     ffffffff81000609 <_ZN2Ec5replyEPFvvEP2Sm+0x43b>
                    return;

                if (pcid != NO_PCID)
ffffffff81000524:	48 83 fe 02          	cmp    $0x2,%rsi
ffffffff81000528:	74 0d                	je     ffffffff81000537 <_ZN2Ec5replyEPFvvEP2Sm+0x369>
                    pcid |= static_cast<mword>(1ULL << 63);
ffffffff8100052a:	48 b8 00 00 00 00 00 	movabs $0x8000000000000000,%rax
ffffffff81000531:	00 00 80 
ffffffff81000534:	48 09 c6             	or     %rax,%rsi
        ALWAYS_INLINE
        static inline T add (T &ptr, T v) { return __sync_add_and_fetch (&ptr, v); }

        template <typename T>
        ALWAYS_INLINE
        static inline T sub (T &ptr, T v) { return __sync_sub_and_fetch (&ptr, v); }
ffffffff81000537:	48 8b 05 d2 ea ff 3e 	mov    0x3effead2(%rip),%rax        # ffffffffbffff010 <_ZN2Pd7currentE>
ffffffff8100053e:	83 c9 ff             	or     $0xffffffff,%ecx
ffffffff81000541:	f0 0f c1 88 8c 00 00 	lock xadd %ecx,0x8c(%rax)
ffffffff81000548:	00 
            }

            Pd * del_pd = nullptr;
            if (current->del_ref()) {
ffffffff81000549:	83 f9 01             	cmp    $0x1,%ecx
ffffffff8100054c:	75 31                	jne    ffffffff8100057f <_ZN2Ec5replyEPFvvEP2Sm+0x3b1>
                assert (current != this);
ffffffff8100054e:	48 8b 2d bb ea ff 3e 	mov    0x3effeabb(%rip),%rbp        # ffffffffbffff010 <_ZN2Pd7currentE>
ffffffff81000555:	48 39 d5             	cmp    %rdx,%rbp
ffffffff81000558:	75 27                	jne    ffffffff81000581 <_ZN2Ec5replyEPFvvEP2Sm+0x3b3>
ffffffff8100055a:	49 c7 c0 a0 12 02 81 	mov    $0xffffffff810212a0,%r8
ffffffff81000561:	b1 5e                	mov    $0x5e,%cl
ffffffff81000563:	48 c7 c2 c7 e6 01 81 	mov    $0xffffffff8101e6c7,%rdx
ffffffff8100056a:	48 c7 c6 35 e7 01 81 	mov    $0xffffffff8101e735,%rsi
ffffffff81000571:	48 c7 c7 28 d2 01 81 	mov    $0xffffffff8101d228,%rdi
ffffffff81000578:	31 c0                	xor    %eax,%eax
ffffffff8100057a:	e8 d1 19 00 00       	callq  ffffffff81001f50 <_ZN7Console5panicEPKcz>

                if (pcid != NO_PCID)
                    pcid |= static_cast<mword>(1ULL << 63);
            }

            Pd * del_pd = nullptr;
ffffffff8100057f:	31 ed                	xor    %ebp,%ebp
            if (current->del_ref()) {
                assert (current != this);
                del_pd = current;
            }

            current = this;
ffffffff81000581:	48 89 15 88 ea ff 3e 	mov    %rdx,0x3effea88(%rip)        # ffffffffbffff010 <_ZN2Pd7currentE>
        inline Refex() : ref (1) {}

        ALWAYS_INLINE
        inline bool add_ref()
        {
            for (uint32 r; (r = ref), (r != ex); )
ffffffff81000588:	8b 82 8c 00 00 00    	mov    0x8c(%rdx),%eax
ffffffff8100058e:	85 c0                	test   %eax,%eax
ffffffff81000590:	74 0d                	je     ffffffff8100059f <_ZN2Ec5replyEPFvvEP2Sm+0x3d1>
                if (Atomic::cmp_swap (ref, r, r + 1))
ffffffff81000592:	8d 48 01             	lea    0x1(%rax),%ecx
class Atomic
{
    public:
        template <typename T>
        ALWAYS_INLINE
        static inline bool cmp_swap (T &ptr, T o, T n) { return __sync_bool_compare_and_swap (&ptr, o, n); }
ffffffff81000595:	f0 0f b1 8a 8c 00 00 	lock cmpxchg %ecx,0x8c(%rdx)
ffffffff8100059c:	00 
ffffffff8100059d:	75 e9                	jne    ffffffff81000588 <_ZN2Ec5replyEPFvvEP2Sm+0x3ba>

            current->add_ref();

            loc[Cpu::id].make_current (Cpu::feature (Cpu::FEAT_PCID) ? pcid : 0);
ffffffff8100059f:	f6 05 a0 f1 ff 3e 02 	testb  $0x2,0x3efff1a0(%rip)        # ffffffffbffff746 <_ZN3Cpu8featuresE+0x6>
        return addr;
    }

    ALWAYS_INLINE
    inline void make_current(mword pcid) {
        asm volatile ("mov %0, %%cr3" : : "r" (val | pcid) : "memory");
ffffffff810005a6:	8b 0d 58 ea ff 3e    	mov    0x3effea58(%rip),%ecx        # ffffffffbffff004 <_ZN3Cpu2idE>
ffffffff810005ac:	b8 00 00 00 00       	mov    $0x0,%eax
ffffffff810005b1:	48 0f 45 c6          	cmovne %rsi,%rax
ffffffff810005b5:	48 0b 84 ca a0 00 00 	or     0xa0(%rdx,%rcx,8),%rax
ffffffff810005bc:	00 
ffffffff810005bd:	0f 22 d8             	mov    %rax,%cr3

            if (del_pd)
ffffffff810005c0:	48 85 ed             	test   %rbp,%rbp
ffffffff810005c3:	74 44                	je     ffffffff81000609 <_ZN2Ec5replyEPFvvEP2Sm+0x43b>
                delete del_pd;
ffffffff810005c5:	48 89 ef             	mov    %rbp,%rdi
ffffffff810005c8:	e8 5b 0a 01 00       	callq  ffffffff81011028 <_ZN2PdD1Ev>

        ALWAYS_INLINE
        static inline void operator delete (void *ptr)
        {
            Pd *pd_del = static_cast<Pd *>(ptr);
            Pd *pd_to  = static_cast<Pd *>(static_cast<Space_obj *>(pd_del->space));
ffffffff810005cd:	48 8b 45 50          	mov    0x50(%rbp),%rax
ffffffff810005d1:	31 d2                	xor    %edx,%edx

            pd_del->quota.free_up(pd_to->quota);
ffffffff810005d3:	48 8d bd 08 03 00 00 	lea    0x308(%rbp),%rdi

        ALWAYS_INLINE
        static inline void operator delete (void *ptr)
        {
            Pd *pd_del = static_cast<Pd *>(ptr);
            Pd *pd_to  = static_cast<Pd *>(static_cast<Space_obj *>(pd_del->space));
ffffffff810005da:	48 8d 88 08 fd ff ff 	lea    -0x2f8(%rax),%rcx
ffffffff810005e1:	48 85 c0             	test   %rax,%rax
ffffffff810005e4:	48 0f 45 d1          	cmovne %rcx,%rdx

            pd_del->quota.free_up(pd_to->quota);
ffffffff810005e8:	4c 8d a2 08 03 00 00 	lea    0x308(%rdx),%r12
ffffffff810005ef:	4c 89 e6             	mov    %r12,%rsi
ffffffff810005f2:	e8 cd 2f 00 00       	callq  ffffffff810035c4 <_ZN5Quota7free_upERS_>

            cache.free (ptr, pd_to->quota);
ffffffff810005f7:	4c 89 e2             	mov    %r12,%rdx
ffffffff810005fa:	48 89 ee             	mov    %rbp,%rsi
ffffffff810005fd:	48 c7 c7 d0 3f 16 81 	mov    $0xffffffff81163fd0,%rdi
ffffffff81000604:	e8 61 54 01 00       	callq  ffffffff81015a6a <_ZN10Slab_cache4freeEPvR5Quota>

        pd->make_current();

        asm volatile ("mov %0," EXPAND(PREG(sp);) "jmp *%1" : : "g" (CPU_LOCAL_STCK + PAGE_SIZE), "q" (cont) : "memory");
ffffffff81000609:	48 8b 83 a0 00 00 00 	mov    0xa0(%rbx),%rax
ffffffff81000610:	48 c7 c4 00 e0 ff bf 	mov    $0xffffffffbfffe000,%rsp
ffffffff81000617:	ff e0                	jmpq   *%rax
ffffffff81000619:	90                   	nop

ffffffff8100061a <_ZN2Ec9recv_userEv>:
    ret_user_sysexit();
}

void Ec::recv_user()
{
    Ec *ec = current->rcap;
ffffffff8100061a:	48 8b 05 e7 e9 ff 3e 	mov    0x3effe9e7(%rip),%rax        # ffffffffbffff008 <_ZN2Ec7currentE>
ffffffff81000621:	41 b8 fc 01 00 00    	mov    $0x1fc,%r8d
ffffffff81000627:	48 8b 88 88 02 00 00 	mov    0x288(%rax),%rcx

    ec->utcb->save (current->utcb);
ffffffff8100062e:	48 8b b0 90 02 00 00 	mov    0x290(%rax),%rsi
ffffffff81000635:	48 8b b9 90 02 00 00 	mov    0x290(%rcx),%rdi
ffffffff8100063c:	48 8b 07             	mov    (%rdi),%rax
        WARN_UNUSED_RESULT bool load_svm (Cpu_regs *);
        WARN_UNUSED_RESULT bool save_exc (Cpu_regs *);
        WARN_UNUSED_RESULT bool save_vmx (Cpu_regs *);
        WARN_UNUSED_RESULT bool save_svm (Cpu_regs *);

        inline mword ucnt() const { return static_cast<uint16>(items); }
ffffffff8100063f:	0f b7 d0             	movzwl %ax,%edx
        ALWAYS_INLINE NONNULL
        inline void save (Utcb *dst)
        {
            register mword n = ui();

            dst->items = items;
ffffffff81000642:	48 89 06             	mov    %rax,(%rsi)
ffffffff81000645:	48 81 fa fc 01 00 00 	cmp    $0x1fc,%rdx
ffffffff8100064c:	49 0f 47 d0          	cmova  %r8,%rdx
#if 0
            mword *d = dst->mr, *s = mr;
            asm volatile ("rep; movsl" : "+D" (d), "+S" (s), "+c" (n) : : "memory");
#else
            for (unsigned long i = 0; i < n; i++)
ffffffff81000650:	31 c0                	xor    %eax,%eax
ffffffff81000652:	48 39 d0             	cmp    %rdx,%rax
ffffffff81000655:	74 0f                	je     ffffffff81000666 <_ZN2Ec9recv_userEv+0x4c>
                dst->mr[i] = mr[i];
ffffffff81000657:	4c 8b 44 c7 20       	mov    0x20(%rdi,%rax,8),%r8
ffffffff8100065c:	4c 89 44 c6 20       	mov    %r8,0x20(%rsi,%rax,8)
            dst->items = items;
#if 0
            mword *d = dst->mr, *s = mr;
            asm volatile ("rep; movsl" : "+D" (d), "+S" (s), "+c" (n) : : "memory");
#else
            for (unsigned long i = 0; i < n; i++)
ffffffff81000661:	48 ff c0             	inc    %rax
ffffffff81000664:	eb ec                	jmp    ffffffff81000652 <_ZN2Ec9recv_userEv+0x38>

    ret_user_sysexit();
}

void Ec::recv_user()
{
ffffffff81000666:	50                   	push   %rax
ffffffff81000667:	48 8b 81 90 02 00 00 	mov    0x290(%rcx),%rax
    Ec *ec = current->rcap;

    ec->utcb->save (current->utcb);

    if (EXPECT_FALSE (ec->utcb->tcnt()))
ffffffff8100066e:	66 83 78 02 00       	cmpw   $0x0,0x2(%rax)
ffffffff81000673:	74 05                	je     ffffffff8100067a <_ZN2Ec9recv_userEv+0x60>
        delegate<true>();
ffffffff81000675:	e8 80 87 01 00       	callq  ffffffff81018dfa <_ZN2Ec8delegateILb1EEEvv>

    ret_user_sysexit();
ffffffff8100067a:	e8 81 f9 ff ff       	callq  ffffffff81000000 <_ZN2Ec16ret_user_sysexitEv>
ffffffff8100067f:	90                   	nop

ffffffff81000680 <_ZN2Ec9sys_replyEv>:

    ec->make_current();
}

void Ec::sys_reply()
{
ffffffff81000680:	55                   	push   %rbp
ffffffff81000681:	53                   	push   %rbx
ffffffff81000682:	48 83 ec 18          	sub    $0x18,%rsp
    Ec *ec = current->rcap;
ffffffff81000686:	48 8b 05 7b e9 ff 3e 	mov    0x3effe97b(%rip),%rax        # ffffffffbffff008 <_ZN2Ec7currentE>
ffffffff8100068d:	48 8b a8 88 02 00 00 	mov    0x288(%rax),%rbp
    Sm *sm = nullptr;

    if (EXPECT_TRUE (ec)) {
ffffffff81000694:	48 85 ed             	test   %rbp,%rbp
ffffffff81000697:	0f 84 65 01 00 00    	je     ffffffff81000802 <_ZN2Ec9sys_replyEv+0x182>

        enum { SYSCALL_REPLY = 1 };

        Sys_reply *r = static_cast<Sys_reply *>(current->sys_regs());

        if (EXPECT_FALSE (current->cont == sys_reply && current->regs.status() != SYSCALL_REPLY)) {
ffffffff8100069d:	48 81 b8 a0 00 00 00 	cmpq   $0xffffffff81000680,0xa0(%rax)
ffffffff810006a4:	80 06 00 81 
ffffffff810006a8:	0f 85 c5 00 00 00    	jne    ffffffff81000773 <_ZN2Ec9sys_replyEv+0xf3>
ffffffff810006ae:	48 8b 98 e8 00 00 00 	mov    0xe8(%rax),%rbx
ffffffff810006b5:	80 fb 01             	cmp    $0x1,%bl
ffffffff810006b8:	0f 84 b5 00 00 00    	je     ffffffff81000773 <_ZN2Ec9sys_replyEv+0xf3>
            else
                ARG_1 = (ARG_1 & ~0xfful) | s;
        }

        ALWAYS_INLINE
        inline void set_pt (mword pt) { ARG_1 = pt; }
ffffffff810006be:	48 c7 80 e8 00 00 00 	movq   $0x1,0xe8(%rax)
ffffffff810006c5:	01 00 00 00 
                if (EXPECT_TRUE (cap.obj()->type() == Kobject::SM && (cap.prm() & 2)))
                    sm = static_cast<Sm *>(cap.obj());
            }
        }

        if (EXPECT_FALSE (sm)) {
ffffffff810006c9:	48 85 db             	test   %rbx,%rbx
            sm = reinterpret_cast<Sm *>(r->sm_kern());
            current->regs.set_pt(SYSCALL_REPLY);
        } else {
            if (EXPECT_FALSE (r->sm())) {
                Capability cap = Space_obj::lookup (r->sm());
                if (EXPECT_TRUE (cap.obj()->type() == Kobject::SM && (cap.prm() & 2)))
ffffffff810006cc:	0f 84 c5 00 00 00    	je     ffffffff81000797 <_ZN2Ec9sys_replyEv+0x117>
                    sm = static_cast<Sm *>(cap.obj());
            }
        }

        if (EXPECT_FALSE (sm)) {
            if (ec->cont == ret_user_sysexit)
ffffffff810006d2:	48 8b 95 a0 00 00 00 	mov    0xa0(%rbp),%rdx
ffffffff810006d9:	48 81 fa 00 00 00 81 	cmp    $0xffffffff81000000,%rdx
ffffffff810006e0:	75 10                	jne    ffffffff810006f2 <_ZN2Ec9sys_replyEv+0x72>
                ec->cont = sys_call;
ffffffff810006e2:	48 c7 85 a0 00 00 00 	movq   $0xffffffff810008ae,0xa0(%rbp)
ffffffff810006e9:	ae 08 00 81 
ffffffff810006ed:	e9 a7 00 00 00       	jmpq   ffffffff81000799 <_ZN2Ec9sys_replyEv+0x119>
            else if (ec->cont == xcpu_return)
ffffffff810006f2:	48 81 fa 76 53 00 81 	cmp    $0xffffffff81005376,%rdx
ffffffff810006f9:	75 0c                	jne    ffffffff81000707 <_ZN2Ec9sys_replyEv+0x87>
        inline void set_status (Status s, bool c = true)
        {
            if (c)
                ARG_1 = s;
            else
                ARG_1 = (ARG_1 & ~0xfful) | s;
ffffffff810006fb:	c6 85 e8 00 00 00 03 	movb   $0x3,0xe8(%rbp)
ffffffff81000702:	e9 92 00 00 00       	jmpq   ffffffff81000799 <_ZN2Ec9sys_replyEv+0x119>
                ec->regs.set_status (Sys_regs::BAD_HYP, false);
            else if (ec->cont == sys_reply) {
ffffffff81000707:	48 81 fa 80 06 00 81 	cmp    $0xffffffff81000680,%rdx
ffffffff8100070e:	0f 85 85 00 00 00    	jne    ffffffff81000799 <_ZN2Ec9sys_replyEv+0x119>
                assert (ec->regs.status() == SYSCALL_REPLY);
ffffffff81000714:	80 bd e8 00 00 00 01 	cmpb   $0x1,0xe8(%rbp)
ffffffff8100071b:	74 1c                	je     ffffffff81000739 <_ZN2Ec9sys_replyEv+0xb9>
ffffffff8100071d:	49 c7 c0 20 12 02 81 	mov    $0xffffffff81021220,%r8
ffffffff81000724:	b9 fb 00 00 00       	mov    $0xfb,%ecx
ffffffff81000729:	48 c7 c2 ab 0c 02 81 	mov    $0xffffffff81020cab,%rdx
ffffffff81000730:	48 c7 c6 6f 0e 02 81 	mov    $0xffffffff81020e6f,%rsi
ffffffff81000737:	eb 25                	jmp    ffffffff8100075e <_ZN2Ec9sys_replyEv+0xde>
        }

        ALWAYS_INLINE
        inline void set_pt (mword pt) { ARG_1 = pt; }
ffffffff81000739:	48 89 9d e8 00 00 00 	mov    %rbx,0xe8(%rbp)
                ec->regs.set_pt(reinterpret_cast<mword>(sm));
                assert (ec->regs.status() != SYSCALL_REPLY);
ffffffff81000740:	fe cb                	dec    %bl
ffffffff81000742:	75 28                	jne    ffffffff8100076c <_ZN2Ec9sys_replyEv+0xec>
ffffffff81000744:	49 c7 c0 20 12 02 81 	mov    $0xffffffff81021220,%r8
ffffffff8100074b:	b9 fd 00 00 00       	mov    $0xfd,%ecx
ffffffff81000750:	48 c7 c2 ab 0c 02 81 	mov    $0xffffffff81020cab,%rdx
ffffffff81000757:	48 c7 c6 92 0e 02 81 	mov    $0xffffffff81020e92,%rsi
ffffffff8100075e:	48 c7 c7 28 d2 01 81 	mov    $0xffffffff8101d228,%rdi
ffffffff81000765:	31 c0                	xor    %eax,%eax
ffffffff81000767:	e8 e4 17 00 00       	callq  ffffffff81001f50 <_ZN7Console5panicEPKcz>
                reply();
ffffffff8100076c:	31 f6                	xor    %esi,%esi
ffffffff8100076e:	e9 94 00 00 00       	jmpq   ffffffff81000807 <_ZN2Ec9sys_replyEv+0x187>

        if (EXPECT_FALSE (current->cont == sys_reply && current->regs.status() != SYSCALL_REPLY)) {
            sm = reinterpret_cast<Sm *>(r->sm_kern());
            current->regs.set_pt(SYSCALL_REPLY);
        } else {
            if (EXPECT_FALSE (r->sm())) {
ffffffff81000773:	48 8b 90 e8 00 00 00 	mov    0xe8(%rax),%rdx
ffffffff8100077a:	48 c1 ea 08          	shr    $0x8,%rdx
ffffffff8100077e:	74 17                	je     ffffffff81000797 <_ZN2Ec9sys_replyEv+0x117>
{
    private:
        ALWAYS_INLINE
        static inline mword idx_to_virt (unsigned long idx)
        {
            return SPC_LOCAL_OBJ + (idx % caps) * sizeof (Capability);
ffffffff81000780:	81 e2 ff ff ff 03    	and    $0x3ffffff,%edx
        static unsigned const caps = (END_SPACE_LIM - SPC_LOCAL_OBJ) / sizeof (Capability);

        ALWAYS_INLINE
        static inline Capability lookup (unsigned long idx)
        {
            return *reinterpret_cast<Capability *>(idx_to_virt (idx));
ffffffff81000786:	48 8b 14 d5 00 00 00 	mov    -0x20000000(,%rdx,8),%rdx
ffffffff8100078d:	e0 

    public:
        ALWAYS_INLINE
        inline Type type() const
        {
            return EXPECT_TRUE (this) ? Type (objtype) : INVALID;
ffffffff8100078e:	48 89 d3             	mov    %rdx,%rbx
ffffffff81000791:	48 83 e3 e0          	and    $0xffffffffffffffe0,%rbx
ffffffff81000795:	75 77                	jne    ffffffff8100080e <_ZN2Ec9sys_replyEv+0x18e>

    ec->make_current();
}

void Ec::sys_reply()
{
ffffffff81000797:	31 db                	xor    %ebx,%ebx
                assert (ec->regs.status() != SYSCALL_REPLY);
                reply();
            }
        }

        Utcb *src = current->utcb;
ffffffff81000799:	48 8b b8 90 02 00 00 	mov    0x290(%rax),%rdi

        if (EXPECT_FALSE (src->tcnt()))
ffffffff810007a0:	66 83 7f 02 00       	cmpw   $0x0,0x2(%rdi)
ffffffff810007a5:	74 0f                	je     ffffffff810007b6 <_ZN2Ec9sys_replyEv+0x136>
ffffffff810007a7:	48 89 7c 24 08       	mov    %rdi,0x8(%rsp)
            delegate<false>();
ffffffff810007ac:	e8 6d 87 01 00       	callq  ffffffff81018f1e <_ZN2Ec8delegateILb0EEEvv>
ffffffff810007b1:	48 8b 7c 24 08       	mov    0x8(%rsp),%rdi

        bool fpu = false;

        assert (current->cont != ret_xcpu_reply);
ffffffff810007b6:	48 8b 05 4b e8 ff 3e 	mov    0x3effe84b(%rip),%rax        # ffffffffbffff008 <_ZN2Ec7currentE>
ffffffff810007bd:	48 81 b8 a0 00 00 00 	cmpq   $0xffffffff81017234,0xa0(%rax)
ffffffff810007c4:	34 72 01 81 
ffffffff810007c8:	75 1f                	jne    ffffffff810007e9 <_ZN2Ec9sys_replyEv+0x169>
